(dp1
Vecg
p2
(dp3
Vfiltering
p4
(dp5
Vflat
p6
(lp7
Vexact
p8
asVend
p9
(lp10
Vexact
p11
asVstart
p12
(lp13
Vexact
p14
asVdatatype
p15
(lp16
Vexact
p17
aVin
p18
aVgt
p19
aVgte
p20
aVlt
p21
aVlte
p22
aVrange
p23
asVtimestamp
p24
(lp25
Vrange
p26
aVgt
p27
aVgte
p28
aVlt
p29
aVlte
p30
asVseconds
p31
(lp32
Vexact
p33
asVno_timestamps
p34
(lp35
Vexact
p36
asVrecord
p37
(lp38
Vexact
p39
aVin
p40
aVgt
p41
aVgte
p42
aVlt
p43
aVlte
p44
aVrange
p45
asVrange
p46
(lp47
Vexact
p48
aVin
p49
aVgt
p50
aVgte
p51
aVlt
p52
aVlte
p53
aVrange
p54
asVuser
p55
(lp56
Vexact
p57
asVmax_values
p58
(lp59
Vexact
p60
asVid
p61
(lp62
Vexact
p63
aVin
p64
aVgt
p65
aVgte
p66
aVlt
p67
aVlte
p68
aVrange
p69
assS'name'
p70
g2
sVallowed_detail_http_methods
p71
(lp72
sVfields
p73
(dp74
g6
(dp75
Vnullable
p76
I00
sVdefault
p77
VNo default provided.
p78
sVreadonly
p79
I00
sVblank
p80
I00
sVhelp_text
p81
V__nodoc__
p82
sVunique
p83
I00
sVtype
p84
Vinteger
p85
ssg9
(dp86
g76
I00
sg77
VNo default provided.
p87
sg79
I00
sg80
I00
sg81
V__nodoc__
p88
sg83
I00
sg84
Vinteger
p89
ssg12
(dp90
g76
I00
sg77
VNo default provided.
p91
sg79
I00
sg80
I00
sg81
V__nodoc__
p92
sg83
I00
sg84
Vinteger
p93
ssg15
(dp94
Vrelated_type
p95
Vto_one
p96
sg76
I00
sg77
VNo default provided.
p97
sg79
I00
sg80
I01
sg81
V__nodoc__
p98
sg83
I00
sg84
Vrelated
p99
ssg24
(dp100
g76
I00
sg77
VNo default provided.
p101
sg79
I00
sg80
I00
sg81
V__nodoc__
p102
sg83
I00
sg84
Vinteger
p103
ssg31
(dp104
g76
I00
sg77
VNo default provided.
p105
sg79
I00
sg80
I00
sg81
V__nodoc__
p106
sg83
I00
sg84
Vinteger
p107
ssg34
(dp108
g76
I00
sg77
VNo default provided.
p109
sg79
I00
sg80
I00
sg81
V__nodoc__
p110
sg83
I00
sg84
Vinteger
p111
ssg37
(dp112
g95
Vto_one
p113
sg76
I01
sg77
VNo default provided.
p114
sg79
I00
sg80
I01
sg81
V__nodoc__
p115
sg83
I00
sg84
Vrelated
p116
ssg46
(dp117
g95
Vto_one
p118
sg76
I00
sg77
VNo default provided.
p119
sg79
I00
sg80
I00
sg81
V__nodoc__
p120
sg83
I00
sg84
Vrelated
p121
ssg55
(dp122
g95
Vto_one
p123
sg76
I00
sg77
VNo default provided.
p124
sg79
I00
sg80
I00
sg81
V__nodoc__
p125
sg83
I00
sg84
Vrelated
p126
ssg58
(dp127
g76
I00
sg77
VNo default provided.
p128
sg79
I00
sg80
I00
sg81
V__nodoc__
p129
sg83
I00
sg84
Vinteger
p130
sssS'list_endpoint'
p131
V/api/ecg/
p132
sVdefault_format
p133
Vapplication/json
p134
sVdefault_limit
p135
I20
sVallowed_list_http_methods
p136
(lp137
Vget
p138
assVheartrate
p139
(dp140
Vfiltering
p141
(dp142
Vflat
p143
(lp144
Vexact
p145
asVend
p146
(lp147
Vexact
p148
asVstart
p149
(lp150
Vexact
p151
asVdatatype
p152
(lp153
Vexact
p154
aVin
p155
aVgt
p156
aVgte
p157
aVlt
p158
aVlte
p159
aVrange
p160
asVtimestamp
p161
(lp162
Vrange
p163
aVgt
p164
aVgte
p165
aVlt
p166
aVlte
p167
asVseconds
p168
(lp169
Vexact
p170
asVno_timestamps
p171
(lp172
Vexact
p173
asVrecord
p174
(lp175
Vexact
p176
aVin
p177
aVgt
p178
aVgte
p179
aVlt
p180
aVlte
p181
aVrange
p182
asVrange
p183
(lp184
Vexact
p185
aVin
p186
aVgt
p187
aVgte
p188
aVlt
p189
aVlte
p190
aVrange
p191
asVuser
p192
(lp193
Vexact
p194
asVmax_values
p195
(lp196
Vexact
p197
asVid
p198
(lp199
Vexact
p200
aVin
p201
aVgt
p202
aVgte
p203
aVlt
p204
aVlte
p205
aVrange
p206
assg70
g139
sVallowed_detail_http_methods
p207
(lp208
sVfields
p209
(dp210
g143
(dp211
Vnullable
p212
I00
sVdefault
p213
VNo default provided.
p214
sVreadonly
p215
I00
sVblank
p216
I00
sVhelp_text
p217
V__nodoc__
p218
sVunique
p219
I00
sVtype
p220
Vinteger
p221
ssg146
(dp222
g212
I00
sg213
VNo default provided.
p223
sg215
I00
sg216
I00
sg217
V__nodoc__
p224
sg219
I00
sg220
Vinteger
p225
ssg149
(dp226
g212
I00
sg213
VNo default provided.
p227
sg215
I00
sg216
I00
sg217
V__nodoc__
p228
sg219
I00
sg220
Vinteger
p229
ssg152
(dp230
Vrelated_type
p231
Vto_one
p232
sg212
I00
sg213
VNo default provided.
p233
sg215
I00
sg216
I01
sg217
V__nodoc__
p234
sg219
I00
sg220
Vrelated
p235
ssg161
(dp236
g212
I00
sg213
VNo default provided.
p237
sg215
I00
sg216
I00
sg217
V__nodoc__
p238
sg219
I00
sg220
Vinteger
p239
ssg168
(dp240
g212
I00
sg213
VNo default provided.
p241
sg215
I00
sg216
I00
sg217
V__nodoc__
p242
sg219
I00
sg220
Vinteger
p243
ssg171
(dp244
g212
I00
sg213
VNo default provided.
p245
sg215
I00
sg216
I00
sg217
V__nodoc__
p246
sg219
I00
sg220
Vinteger
p247
ssg174
(dp248
g231
Vto_one
p249
sg212
I01
sg213
VNo default provided.
p250
sg215
I00
sg216
I01
sg217
V__nodoc__
p251
sg219
I00
sg220
Vrelated
p252
ssg183
(dp253
g231
Vto_one
p254
sg212
I00
sg213
VNo default provided.
p255
sg215
I00
sg216
I00
sg217
V__nodoc__
p256
sg219
I00
sg220
Vrelated
p257
ssg192
(dp258
g231
Vto_one
p259
sg212
I00
sg213
VNo default provided.
p260
sg215
I00
sg216
I00
sg217
V__nodoc__
p261
sg219
I00
sg220
Vrelated
p262
ssg195
(dp263
g212
I00
sg213
VNo default provided.
p264
sg215
I00
sg216
I00
sg217
V__nodoc__
p265
sg219
I00
sg220
Vinteger
p266
sssg131
V/api/heartrate/
p267
sVdefault_format
p268
Vapplication/json
p269
sVdefault_limit
p270
I20
sVallowed_list_http_methods
p271
(lp272
Vget
p273
assVppg
p274
(dp275
Vfiltering
p276
(dp277
Vflat
p278
(lp279
Vexact
p280
asVend
p281
(lp282
Vexact
p283
asVstart
p284
(lp285
Vexact
p286
asVdatatype
p287
(lp288
Vexact
p289
aVin
p290
aVgt
p291
aVgte
p292
aVlt
p293
aVlte
p294
aVrange
p295
asVtimestamp
p296
(lp297
Vrange
p298
aVgt
p299
aVgte
p300
aVlt
p301
aVlte
p302
asVseconds
p303
(lp304
Vexact
p305
asVno_timestamps
p306
(lp307
Vexact
p308
asVrecord
p309
(lp310
Vexact
p311
aVin
p312
aVgt
p313
aVgte
p314
aVlt
p315
aVlte
p316
aVrange
p317
asVrange
p318
(lp319
Vexact
p320
aVin
p321
aVgt
p322
aVgte
p323
aVlt
p324
aVlte
p325
aVrange
p326
asVuser
p327
(lp328
Vexact
p329
asVmax_values
p330
(lp331
Vexact
p332
asVid
p333
(lp334
Vexact
p335
aVin
p336
aVgt
p337
aVgte
p338
aVlt
p339
aVlte
p340
aVrange
p341
assg70
g274
sVallowed_detail_http_methods
p342
(lp343
sVfields
p344
(dp345
g278
(dp346
Vnullable
p347
I00
sVdefault
p348
VNo default provided.
p349
sVreadonly
p350
I00
sVblank
p351
I00
sVhelp_text
p352
V__nodoc__
p353
sVunique
p354
I00
sVtype
p355
Vinteger
p356
ssg281
(dp357
g347
I00
sg348
VNo default provided.
p358
sg350
I00
sg351
I00
sg352
V__nodoc__
p359
sg354
I00
sg355
Vinteger
p360
ssg284
(dp361
g347
I00
sg348
VNo default provided.
p362
sg350
I00
sg351
I00
sg352
V__nodoc__
p363
sg354
I00
sg355
Vinteger
p364
ssg287
(dp365
Vrelated_type
p366
Vto_one
p367
sg347
I00
sg348
VNo default provided.
p368
sg350
I00
sg351
I01
sg352
V__nodoc__
p369
sg354
I00
sg355
Vrelated
p370
ssg296
(dp371
g347
I00
sg348
VNo default provided.
p372
sg350
I00
sg351
I00
sg352
V__nodoc__
p373
sg354
I00
sg355
Vinteger
p374
ssg303
(dp375
g347
I00
sg348
VNo default provided.
p376
sg350
I00
sg351
I00
sg352
V__nodoc__
p377
sg354
I00
sg355
Vinteger
p378
ssg306
(dp379
g347
I00
sg348
VNo default provided.
p380
sg350
I00
sg351
I00
sg352
V__nodoc__
p381
sg354
I00
sg355
Vinteger
p382
ssg309
(dp383
g366
Vto_one
p384
sg347
I01
sg348
VNo default provided.
p385
sg350
I00
sg351
I01
sg352
V__nodoc__
p386
sg354
I00
sg355
Vrelated
p387
ssg318
(dp388
g366
Vto_one
p389
sg347
I00
sg348
VNo default provided.
p390
sg350
I00
sg351
I00
sg352
V__nodoc__
p391
sg354
I00
sg355
Vrelated
p392
ssg327
(dp393
g366
Vto_one
p394
sg347
I00
sg348
VNo default provided.
p395
sg350
I00
sg351
I00
sg352
V__nodoc__
p396
sg354
I00
sg355
Vrelated
p397
ssg330
(dp398
g347
I00
sg348
VNo default provided.
p399
sg350
I00
sg351
I00
sg352
V__nodoc__
p400
sg354
I00
sg355
Vinteger
p401
sssg131
V/api/ppg/
p402
sVdefault_format
p403
Vapplication/json
p404
sVdefault_limit
p405
I20
sVallowed_list_http_methods
p406
(lp407
Vget
p408
assVstep
p409
(dp410
Vfiltering
p411
(dp412
Vflat
p413
(lp414
Vexact
p415
asVend
p416
(lp417
Vexact
p418
asVstart
p419
(lp420
Vexact
p421
asVdatatype
p422
(lp423
Vexact
p424
aVin
p425
aVgt
p426
aVgte
p427
aVlt
p428
aVlte
p429
aVrange
p430
asVtimestamp
p431
(lp432
Vrange
p433
aVgt
p434
aVgte
p435
aVlt
p436
aVlte
p437
asVseconds
p438
(lp439
Vexact
p440
asVno_timestamps
p441
(lp442
Vexact
p443
asVrecord
p444
(lp445
Vexact
p446
aVin
p447
aVgt
p448
aVgte
p449
aVlt
p450
aVlte
p451
aVrange
p452
asVrange
p453
(lp454
Vexact
p455
aVin
p456
aVgt
p457
aVgte
p458
aVlt
p459
aVlte
p460
aVrange
p461
asVuser
p462
(lp463
Vexact
p464
asVmax_values
p465
(lp466
Vexact
p467
asVid
p468
(lp469
Vexact
p470
aVin
p471
aVgt
p472
aVgte
p473
aVlt
p474
aVlte
p475
aVrange
p476
assg70
g409
sVallowed_detail_http_methods
p477
(lp478
sVfields
p479
(dp480
g413
(dp481
Vnullable
p482
I00
sVdefault
p483
VNo default provided.
p484
sVreadonly
p485
I00
sVblank
p486
I00
sVhelp_text
p487
V__nodoc__
p488
sVunique
p489
I00
sVtype
p490
Vinteger
p491
ssg416
(dp492
g482
I00
sg483
VNo default provided.
p493
sg485
I00
sg486
I00
sg487
V__nodoc__
p494
sg489
I00
sg490
Vinteger
p495
ssg419
(dp496
g482
I00
sg483
VNo default provided.
p497
sg485
I00
sg486
I00
sg487
V__nodoc__
p498
sg489
I00
sg490
Vinteger
p499
ssg422
(dp500
Vrelated_type
p501
Vto_one
p502
sg482
I00
sg483
VNo default provided.
p503
sg485
I00
sg486
I01
sg487
V__nodoc__
p504
sg489
I00
sg490
Vrelated
p505
ssg431
(dp506
g482
I00
sg483
VNo default provided.
p507
sg485
I00
sg486
I00
sg487
V__nodoc__
p508
sg489
I00
sg490
Vinteger
p509
ssg438
(dp510
g482
I00
sg483
VNo default provided.
p511
sg485
I00
sg486
I00
sg487
V__nodoc__
p512
sg489
I00
sg490
Vinteger
p513
ssg441
(dp514
g482
I00
sg483
VNo default provided.
p515
sg485
I00
sg486
I00
sg487
V__nodoc__
p516
sg489
I00
sg490
Vinteger
p517
ssg444
(dp518
g501
Vto_one
p519
sg482
I01
sg483
VNo default provided.
p520
sg485
I00
sg486
I01
sg487
V__nodoc__
p521
sg489
I00
sg490
Vrelated
p522
ssg453
(dp523
g501
Vto_one
p524
sg482
I00
sg483
VNo default provided.
p525
sg485
I00
sg486
I00
sg487
V__nodoc__
p526
sg489
I00
sg490
Vrelated
p527
ssg462
(dp528
g501
Vto_one
p529
sg482
I00
sg483
VNo default provided.
p530
sg485
I00
sg486
I00
sg487
V__nodoc__
p531
sg489
I00
sg490
Vrelated
p532
ssg465
(dp533
g482
I00
sg483
VNo default provided.
p534
sg485
I00
sg486
I00
sg487
V__nodoc__
p535
sg489
I00
sg490
Vinteger
p536
sssg131
V/api/step/
p537
sVdefault_format
p538
Vapplication/json
p539
sVdefault_limit
p540
I20
sVallowed_list_http_methods
p541
(lp542
Vget
p543
assVpohr
p544
(dp545
Vfiltering
p546
(dp547
Vflat
p548
(lp549
Vexact
p550
asVend
p551
(lp552
Vexact
p553
asVstart
p554
(lp555
Vexact
p556
asVdatatype
p557
(lp558
Vexact
p559
aVin
p560
aVgt
p561
aVgte
p562
aVlt
p563
aVlte
p564
aVrange
p565
asVtimestamp
p566
(lp567
Vrange
p568
aVgt
p569
aVgte
p570
aVlt
p571
aVlte
p572
asVseconds
p573
(lp574
Vexact
p575
asVno_timestamps
p576
(lp577
Vexact
p578
asVrecord
p579
(lp580
Vexact
p581
aVin
p582
aVgt
p583
aVgte
p584
aVlt
p585
aVlte
p586
aVrange
p587
asVrange
p588
(lp589
Vexact
p590
aVin
p591
aVgt
p592
aVgte
p593
aVlt
p594
aVlte
p595
aVrange
p596
asVuser
p597
(lp598
Vexact
p599
asVmax_values
p600
(lp601
Vexact
p602
asVid
p603
(lp604
Vexact
p605
aVin
p606
aVgt
p607
aVgte
p608
aVlt
p609
aVlte
p610
aVrange
p611
assg70
g544
sVallowed_detail_http_methods
p612
(lp613
sVfields
p614
(dp615
g548
(dp616
Vnullable
p617
I00
sVdefault
p618
VNo default provided.
p619
sVreadonly
p620
I00
sVblank
p621
I00
sVhelp_text
p622
V__nodoc__
p623
sVunique
p624
I00
sVtype
p625
Vinteger
p626
ssg551
(dp627
g617
I00
sg618
VNo default provided.
p628
sg620
I00
sg621
I00
sg622
V__nodoc__
p629
sg624
I00
sg625
Vinteger
p630
ssg554
(dp631
g617
I00
sg618
VNo default provided.
p632
sg620
I00
sg621
I00
sg622
V__nodoc__
p633
sg624
I00
sg625
Vinteger
p634
ssg557
(dp635
Vrelated_type
p636
Vto_one
p637
sg617
I00
sg618
VNo default provided.
p638
sg620
I00
sg621
I01
sg622
V__nodoc__
p639
sg624
I00
sg625
Vrelated
p640
ssg566
(dp641
g617
I00
sg618
VNo default provided.
p642
sg620
I00
sg621
I00
sg622
V__nodoc__
p643
sg624
I00
sg625
Vinteger
p644
ssg573
(dp645
g617
I00
sg618
VNo default provided.
p646
sg620
I00
sg621
I00
sg622
V__nodoc__
p647
sg624
I00
sg625
Vinteger
p648
ssg576
(dp649
g617
I00
sg618
VNo default provided.
p650
sg620
I00
sg621
I00
sg622
V__nodoc__
p651
sg624
I00
sg625
Vinteger
p652
ssg579
(dp653
g636
Vto_one
p654
sg617
I01
sg618
VNo default provided.
p655
sg620
I00
sg621
I01
sg622
V__nodoc__
p656
sg624
I00
sg625
Vrelated
p657
ssg588
(dp658
g636
Vto_one
p659
sg617
I00
sg618
VNo default provided.
p660
sg620
I00
sg621
I00
sg622
V__nodoc__
p661
sg624
I00
sg625
Vrelated
p662
ssg597
(dp663
g636
Vto_one
p664
sg617
I00
sg618
VNo default provided.
p665
sg620
I00
sg621
I00
sg622
V__nodoc__
p666
sg624
I00
sg625
Vrelated
p667
ssg600
(dp668
g617
I00
sg618
VNo default provided.
p669
sg620
I00
sg621
I00
sg622
V__nodoc__
p670
sg624
I00
sg625
Vinteger
p671
sssg131
V/api/pohr/
p672
sVdefault_format
p673
Vapplication/json
p674
sVdefault_limit
p675
I20
sVallowed_list_http_methods
p676
(lp677
Vget
p678
assVann
p679
(dp680
Vfiltering
p681
(dp682
Vflat
p683
(lp684
Vexact
p685
asVend
p686
(lp687
Vexact
p688
asVstart
p689
(lp690
Vexact
p691
asVdatatype
p692
(lp693
Vexact
p694
aVin
p695
aVgt
p696
aVgte
p697
aVlt
p698
aVlte
p699
aVrange
p700
asVtimestamp
p701
(lp702
Vrange
p703
aVgt
p704
aVgte
p705
aVlt
p706
aVlte
p707
asVseconds
p708
(lp709
Vexact
p710
asVno_timestamps
p711
(lp712
Vexact
p713
asVrecord
p714
(lp715
Vexact
p716
aVin
p717
aVgt
p718
aVgte
p719
aVlt
p720
aVlte
p721
aVrange
p722
asVrange
p723
(lp724
Vexact
p725
aVin
p726
aVgt
p727
aVgte
p728
aVlt
p729
aVlte
p730
aVrange
p731
asVuser
p732
(lp733
Vexact
p734
asVmax_values
p735
(lp736
Vexact
p737
asVid
p738
(lp739
Vexact
p740
aVin
p741
aVgt
p742
aVgte
p743
aVlt
p744
aVlte
p745
aVrange
p746
assg70
g679
sVallowed_detail_http_methods
p747
(lp748
sVfields
p749
(dp750
g683
(dp751
Vnullable
p752
I00
sVdefault
p753
VNo default provided.
p754
sVreadonly
p755
I00
sVblank
p756
I00
sVhelp_text
p757
V__nodoc__
p758
sVunique
p759
I00
sVtype
p760
Vinteger
p761
ssg686
(dp762
g752
I00
sg753
VNo default provided.
p763
sg755
I00
sg756
I00
sg757
V__nodoc__
p764
sg759
I00
sg760
Vinteger
p765
ssg689
(dp766
g752
I00
sg753
VNo default provided.
p767
sg755
I00
sg756
I00
sg757
V__nodoc__
p768
sg759
I00
sg760
Vinteger
p769
ssg692
(dp770
Vrelated_type
p771
Vto_one
p772
sg752
I00
sg753
VNo default provided.
p773
sg755
I00
sg756
I01
sg757
V__nodoc__
p774
sg759
I00
sg760
Vrelated
p775
ssg701
(dp776
g752
I00
sg753
VNo default provided.
p777
sg755
I00
sg756
I00
sg757
V__nodoc__
p778
sg759
I00
sg760
Vinteger
p779
ssg708
(dp780
g752
I00
sg753
VNo default provided.
p781
sg755
I00
sg756
I00
sg757
V__nodoc__
p782
sg759
I00
sg760
Vinteger
p783
ssg711
(dp784
g752
I00
sg753
VNo default provided.
p785
sg755
I00
sg756
I00
sg757
V__nodoc__
p786
sg759
I00
sg760
Vinteger
p787
ssg714
(dp788
g771
Vto_one
p789
sg752
I01
sg753
VNo default provided.
p790
sg755
I00
sg756
I01
sg757
V__nodoc__
p791
sg759
I00
sg760
Vrelated
p792
ssg723
(dp793
g771
Vto_one
p794
sg752
I00
sg753
VNo default provided.
p795
sg755
I00
sg756
I00
sg757
V__nodoc__
p796
sg759
I00
sg760
Vrelated
p797
ssg732
(dp798
g771
Vto_one
p799
sg752
I00
sg753
VNo default provided.
p800
sg755
I00
sg756
I00
sg757
V__nodoc__
p801
sg759
I00
sg760
Vrelated
p802
ssg735
(dp803
g752
I00
sg753
VNo default provided.
p804
sg755
I00
sg756
I00
sg757
V__nodoc__
p805
sg759
I00
sg760
Vinteger
p806
sssg131
V/api/ann/
p807
sVdefault_format
p808
Vapplication/json
p809
sVdefault_limit
p810
I20
sVallowed_list_http_methods
p811
(lp812
Vget
p813
assVactivityattribute
p814
(dp815
Vfiltering
p816
(dp817
Vdatatype
p818
(lp819
Vexact
p820
aVin
p821
aVgt
p822
aVgte
p823
aVlt
p824
aVlte
p825
aVrange
p826
asVid
p827
(lp828
Vexact
p829
aVin
p830
aVgt
p831
aVgte
p832
aVlt
p833
aVlte
p834
aVrange
p835
asVuser
p836
(lp837
Vexact
p838
aVin
p839
aVisnull
p840
assg70
g814
sVallowed_detail_http_methods
p841
(lp842
Vget
p843
aVput
p844
aVpatch
p845
aVdelete
p846
asVordering
p847
(lp848
Vid
p849
aVdatatype
p850
aVuser
p851
asVfields
p852
(dp853
Vattrtype
p854
(dp855
Vnullable
p856
I00
sVdefault
p857
Vuser
p858
sVreadonly
p859
I00
sVblank
p860
I01
sVhelp_text
p861
VDefine how the activityattributevalue is supplied. Values for `user` activityattributes can be modified \u000a                by the user whereas values for `calculated` activityattributes are determined server side and may not be modified.
p862
sVunique
p863
I00
sVtype
p864
Vstring
p865
ssVname
p866
(dp867
g856
I00
sg857
V
sg859
I00
sg860
I00
sg861
VUnicode string data. Ex: "Hello World"
p868
sg863
I00
sg864
Vstring
p869
ssg836
(dp870
Vrelated_type
p871
Vto_one
p872
sg856
I01
sg857
VNo default provided.
p873
sg859
I00
sg860
I00
sg861
VA [:r:user].  Maybe specified by URI, email, or ID.  Using a URI is recommended.
p874
sg863
I00
sg864
Vrelated
p875
ssg827
(dp876
g856
I00
sg857
VNo default provided.
p877
sg859
I01
sg860
I00
sg861
VThe primary key for this resource. Integer data. Ex: 2673
p878
sg863
I01
sg864
Vinteger
p879
ssVunit
p880
(dp881
g871
Vto_one
p882
sg856
I01
sg857
VNo default provided.
p883
sg859
I00
sg860
I01
sg861
VA reference to [:r:unit].  Maybe specified by URI or ID.  Using a URI is recommended.
p884
sg863
I00
sg864
Vrelated
p885
ssVresource_uri
p886
(dp887
g856
I00
sg857
VNo default provided.
p888
sg859
I01
sg860
I00
sg861
VThe unique URI where the object resides.
p889
sg863
I00
sg864
Vstring
p890
sssg131
V/api/activityattribute/
p891
sVdefault_format
p892
Vapplication/json
p893
sVdefault_limit
p894
I20
sVallowed_list_http_methods
p895
(lp896
Vget
p897
aVpost
p898
aVpatch
p899
assVsystolicpressure
p900
(dp901
Vfiltering
p902
(dp903
Vflat
p904
(lp905
Vexact
p906
asVend
p907
(lp908
Vexact
p909
asVstart
p910
(lp911
Vexact
p912
asVdatatype
p913
(lp914
Vexact
p915
aVin
p916
aVgt
p917
aVgte
p918
aVlt
p919
aVlte
p920
aVrange
p921
asVtimestamp
p922
(lp923
Vrange
p924
aVgt
p925
aVgte
p926
aVlt
p927
aVlte
p928
asVseconds
p929
(lp930
Vexact
p931
asVno_timestamps
p932
(lp933
Vexact
p934
asVrecord
p935
(lp936
Vexact
p937
aVin
p938
aVgt
p939
aVgte
p940
aVlt
p941
aVlte
p942
aVrange
p943
asVrange
p944
(lp945
Vexact
p946
aVin
p947
aVgt
p948
aVgte
p949
aVlt
p950
aVlte
p951
aVrange
p952
asVuser
p953
(lp954
Vexact
p955
asVmax_values
p956
(lp957
Vexact
p958
asVid
p959
(lp960
Vexact
p961
aVin
p962
aVgt
p963
aVgte
p964
aVlt
p965
aVlte
p966
aVrange
p967
assg70
g900
sVallowed_detail_http_methods
p968
(lp969
sVfields
p970
(dp971
g904
(dp972
Vnullable
p973
I00
sVdefault
p974
VNo default provided.
p975
sVreadonly
p976
I00
sVblank
p977
I00
sVhelp_text
p978
V__nodoc__
p979
sVunique
p980
I00
sVtype
p981
Vinteger
p982
ssg907
(dp983
g973
I00
sg974
VNo default provided.
p984
sg976
I00
sg977
I00
sg978
V__nodoc__
p985
sg980
I00
sg981
Vinteger
p986
ssg910
(dp987
g973
I00
sg974
VNo default provided.
p988
sg976
I00
sg977
I00
sg978
V__nodoc__
p989
sg980
I00
sg981
Vinteger
p990
ssg913
(dp991
Vrelated_type
p992
Vto_one
p993
sg973
I00
sg974
VNo default provided.
p994
sg976
I00
sg977
I01
sg978
V__nodoc__
p995
sg980
I00
sg981
Vrelated
p996
ssg922
(dp997
g973
I00
sg974
VNo default provided.
p998
sg976
I00
sg977
I00
sg978
V__nodoc__
p999
sg980
I00
sg981
Vinteger
p1000
ssg929
(dp1001
g973
I00
sg974
VNo default provided.
p1002
sg976
I00
sg977
I00
sg978
V__nodoc__
p1003
sg980
I00
sg981
Vinteger
p1004
ssg932
(dp1005
g973
I00
sg974
VNo default provided.
p1006
sg976
I00
sg977
I00
sg978
V__nodoc__
p1007
sg980
I00
sg981
Vinteger
p1008
ssg935
(dp1009
g992
Vto_one
p1010
sg973
I01
sg974
VNo default provided.
p1011
sg976
I00
sg977
I01
sg978
V__nodoc__
p1012
sg980
I00
sg981
Vrelated
p1013
ssg944
(dp1014
g992
Vto_one
p1015
sg973
I00
sg974
VNo default provided.
p1016
sg976
I00
sg977
I00
sg978
V__nodoc__
p1017
sg980
I00
sg981
Vrelated
p1018
ssg953
(dp1019
g992
Vto_one
p1020
sg973
I00
sg974
VNo default provided.
p1021
sg976
I00
sg977
I00
sg978
V__nodoc__
p1022
sg980
I00
sg981
Vrelated
p1023
ssg956
(dp1024
g973
I00
sg974
VNo default provided.
p1025
sg976
I00
sg977
I00
sg978
V__nodoc__
p1026
sg980
I00
sg981
Vinteger
p1027
sssg131
V/api/systolicpressure/
p1028
sVdefault_format
p1029
Vapplication/json
p1030
sVdefault_limit
p1031
I20
sVallowed_list_http_methods
p1032
(lp1033
Vget
p1034
assVtidalvolumeadjusted
p1035
(dp1036
Vfiltering
p1037
(dp1038
Vflat
p1039
(lp1040
Vexact
p1041
asVend
p1042
(lp1043
Vexact
p1044
asVstart
p1045
(lp1046
Vexact
p1047
asVdatatype
p1048
(lp1049
Vexact
p1050
aVin
p1051
aVgt
p1052
aVgte
p1053
aVlt
p1054
aVlte
p1055
aVrange
p1056
asVtimestamp
p1057
(lp1058
Vrange
p1059
aVgt
p1060
aVgte
p1061
aVlt
p1062
aVlte
p1063
asVseconds
p1064
(lp1065
Vexact
p1066
asVno_timestamps
p1067
(lp1068
Vexact
p1069
asVrecord
p1070
(lp1071
Vexact
p1072
aVin
p1073
aVgt
p1074
aVgte
p1075
aVlt
p1076
aVlte
p1077
aVrange
p1078
asVrange
p1079
(lp1080
Vexact
p1081
aVin
p1082
aVgt
p1083
aVgte
p1084
aVlt
p1085
aVlte
p1086
aVrange
p1087
asVuser
p1088
(lp1089
Vexact
p1090
asVmax_values
p1091
(lp1092
Vexact
p1093
asVid
p1094
(lp1095
Vexact
p1096
aVin
p1097
aVgt
p1098
aVgte
p1099
aVlt
p1100
aVlte
p1101
aVrange
p1102
assg70
g1035
sVallowed_detail_http_methods
p1103
(lp1104
sVfields
p1105
(dp1106
g1039
(dp1107
Vnullable
p1108
I00
sVdefault
p1109
VNo default provided.
p1110
sVreadonly
p1111
I00
sVblank
p1112
I00
sVhelp_text
p1113
V__nodoc__
p1114
sVunique
p1115
I00
sVtype
p1116
Vinteger
p1117
ssg1042
(dp1118
g1108
I00
sg1109
VNo default provided.
p1119
sg1111
I00
sg1112
I00
sg1113
V__nodoc__
p1120
sg1115
I00
sg1116
Vinteger
p1121
ssg1045
(dp1122
g1108
I00
sg1109
VNo default provided.
p1123
sg1111
I00
sg1112
I00
sg1113
V__nodoc__
p1124
sg1115
I00
sg1116
Vinteger
p1125
ssg1048
(dp1126
Vrelated_type
p1127
Vto_one
p1128
sg1108
I00
sg1109
VNo default provided.
p1129
sg1111
I00
sg1112
I01
sg1113
V__nodoc__
p1130
sg1115
I00
sg1116
Vrelated
p1131
ssg1057
(dp1132
g1108
I00
sg1109
VNo default provided.
p1133
sg1111
I00
sg1112
I00
sg1113
V__nodoc__
p1134
sg1115
I00
sg1116
Vinteger
p1135
ssg1064
(dp1136
g1108
I00
sg1109
VNo default provided.
p1137
sg1111
I00
sg1112
I00
sg1113
V__nodoc__
p1138
sg1115
I00
sg1116
Vinteger
p1139
ssg1067
(dp1140
g1108
I00
sg1109
VNo default provided.
p1141
sg1111
I00
sg1112
I00
sg1113
V__nodoc__
p1142
sg1115
I00
sg1116
Vinteger
p1143
ssg1070
(dp1144
g1127
Vto_one
p1145
sg1108
I01
sg1109
VNo default provided.
p1146
sg1111
I00
sg1112
I01
sg1113
V__nodoc__
p1147
sg1115
I00
sg1116
Vrelated
p1148
ssg1079
(dp1149
g1127
Vto_one
p1150
sg1108
I00
sg1109
VNo default provided.
p1151
sg1111
I00
sg1112
I00
sg1113
V__nodoc__
p1152
sg1115
I00
sg1116
Vrelated
p1153
ssg1088
(dp1154
g1127
Vto_one
p1155
sg1108
I00
sg1109
VNo default provided.
p1156
sg1111
I00
sg1112
I00
sg1113
V__nodoc__
p1157
sg1115
I00
sg1116
Vrelated
p1158
ssg1091
(dp1159
g1108
I00
sg1109
VNo default provided.
p1160
sg1111
I00
sg1112
I00
sg1113
V__nodoc__
p1161
sg1115
I00
sg1116
Vinteger
p1162
sssg131
V/api/tidalvolumeadjusted/
p1163
sVdefault_format
p1164
Vapplication/json
p1165
sVdefault_limit
p1166
I20
sVallowed_list_http_methods
p1167
(lp1168
Vget
p1169
assVdevice
p1170
(dp1171
Vfiltering
p1172
(dp1173
Vdeviceid
p1174
(lp1175
Vexact
p1176
aVin
p1177
asVid
p1178
(lp1179
Vexact
p1180
aVin
p1181
aVgt
p1182
aVgte
p1183
aVlt
p1184
aVlte
p1185
aVrange
p1186
assg70
g1170
sVallowed_detail_http_methods
p1187
(lp1188
Vget
p1189
asVordering
p1190
(lp1191
Vid
p1192
asVfields
p1193
(dp1194
Vbatt_start
p1195
(dp1196
Vnullable
p1197
I00
sVdefault
p1198
VNo default provided.
p1199
sVreadonly
p1200
I00
sVblank
p1201
I00
sVhelp_text
p1202
VInteger data. Ex: 2673
p1203
sVunique
p1204
I00
sVtype
p1205
Vinteger
p1206
ssVbatt_end
p1207
(dp1208
g1197
I00
sg1198
VNo default provided.
p1209
sg1200
I00
sg1201
I00
sg1202
VInteger data. Ex: 2673
p1210
sg1204
I00
sg1205
Vinteger
p1211
ssVbt_info
p1212
(dp1213
g1197
I00
sg1198
V
sg1200
I00
sg1201
I01
sg1202
VUnicode string data. Ex: "Hello World"
p1214
sg1204
I00
sg1205
Vstring
p1215
ssVhw_rev
p1216
(dp1217
g1197
I00
sg1198
VNo default provided.
p1218
sg1200
I00
sg1201
I00
sg1202
V
sg1204
I00
sg1205
Vstring
p1219
ssVcreated
p1220
(dp1221
g1197
I00
sg1198
I01
sg1200
I00
sg1201
I01
sg1202
VA date & time as a string. Ex: "2010-11-10T03:07:43"
p1222
sg1204
I00
sg1205
Vdatetime
p1223
ssVcharge_time
p1224
(dp1225
g1197
I00
sg1198
VNo default provided.
p1226
sg1200
I00
sg1201
I00
sg1202
VInteger data. Ex: 2673
p1227
sg1204
I00
sg1205
Vinteger
p1228
ssVfw_start
p1229
(dp1230
g1197
I00
sg1198
VNo default provided.
p1231
sg1200
I00
sg1201
I00
sg1202
V
sg1204
I00
sg1205
Vstring
p1232
ssVfw_end
p1233
(dp1234
g1197
I00
sg1198
VNo default provided.
p1235
sg1200
I00
sg1201
I00
sg1202
V
sg1204
I00
sg1205
Vstring
p1236
ssVpurchase_order
p1237
(dp1238
g1197
I00
sg1198
VNo default provided.
p1239
sg1200
I00
sg1201
I00
sg1202
VInteger data. Ex: 2673
p1240
sg1204
I00
sg1205
Vinteger
p1241
ssVlast_modified
p1242
(dp1243
g1197
I00
sg1198
I01
sg1200
I00
sg1201
I01
sg1202
VA date & time as a string. Ex: "2010-11-10T03:07:43"
p1244
sg1204
I00
sg1205
Vdatetime
p1245
ssVstatus
p1246
(dp1247
g1197
I00
sg1198
VNo default provided.
p1248
sg1200
I00
sg1201
I00
sg1202
VInteger data. Ex: 2673
p1249
sg1204
I00
sg1205
Vinteger
p1250
ssg1174
(dp1251
g1197
I00
sg1198
V
sg1200
I01
sg1201
I01
sg1202
VUnicode string data. Ex: "Hello World"
p1252
sg1204
I01
sg1205
Vstring
p1253
ssVmcu_info
p1254
(dp1255
g1197
I00
sg1198
V
sg1200
I00
sg1201
I01
sg1202
VUnicode string data. Ex: "Hello World"
p1256
sg1204
I00
sg1205
Vstring
p1257
ssVmodel
p1258
(dp1259
g1197
I00
sg1198
VNo default provided.
p1260
sg1200
I00
sg1201
I00
sg1202
VInteger data. Ex: 2673
p1261
sg1204
I00
sg1205
Vinteger
p1262
ssVbt_addr
p1263
(dp1264
g1197
I00
sg1198
VNo default provided.
p1265
sg1200
I00
sg1201
I00
sg1202
VUnicode string data. Ex: "Hello World"
p1266
sg1204
I00
sg1205
Vstring
p1267
ssg1178
(dp1268
g1197
I00
sg1198
VNo default provided.
p1269
sg1200
I01
sg1201
I00
sg1202
VThe primary key for this resource. Integer data. Ex: 2673
p1270
sg1204
I01
sg1205
Vinteger
p1271
ssVserial
p1272
(dp1273
g1197
I00
sg1198
VNo default provided.
p1274
sg1200
I00
sg1201
I00
sg1202
VInteger data. Ex: 2673
p1275
sg1204
I00
sg1205
Vinteger
p1276
ssVresource_uri
p1277
(dp1278
g1197
I00
sg1198
VNo default provided.
p1279
sg1200
I01
sg1201
I00
sg1202
VThe unique URI where the object resides.
p1280
sg1204
I00
sg1205
Vstring
p1281
sssg131
V/api/device/
p1282
sVdefault_format
p1283
Vapplication/json
p1284
sVdefault_limit
p1285
I20
sVallowed_list_http_methods
p1286
(lp1287
Vget
p1288
assVqrs
p1289
(dp1290
Vfiltering
p1291
(dp1292
Vflat
p1293
(lp1294
Vexact
p1295
asVend
p1296
(lp1297
Vexact
p1298
asVstart
p1299
(lp1300
Vexact
p1301
asVdatatype
p1302
(lp1303
Vexact
p1304
aVin
p1305
aVgt
p1306
aVgte
p1307
aVlt
p1308
aVlte
p1309
aVrange
p1310
asVtimestamp
p1311
(lp1312
Vrange
p1313
aVgt
p1314
aVgte
p1315
aVlt
p1316
aVlte
p1317
asVseconds
p1318
(lp1319
Vexact
p1320
asVno_timestamps
p1321
(lp1322
Vexact
p1323
asVrecord
p1324
(lp1325
Vexact
p1326
aVin
p1327
aVgt
p1328
aVgte
p1329
aVlt
p1330
aVlte
p1331
aVrange
p1332
asVrange
p1333
(lp1334
Vexact
p1335
aVin
p1336
aVgt
p1337
aVgte
p1338
aVlt
p1339
aVlte
p1340
aVrange
p1341
asVuser
p1342
(lp1343
Vexact
p1344
asVmax_values
p1345
(lp1346
Vexact
p1347
asVid
p1348
(lp1349
Vexact
p1350
aVin
p1351
aVgt
p1352
aVgte
p1353
aVlt
p1354
aVlte
p1355
aVrange
p1356
assg70
g1289
sVallowed_detail_http_methods
p1357
(lp1358
sVfields
p1359
(dp1360
g1293
(dp1361
Vnullable
p1362
I00
sVdefault
p1363
VNo default provided.
p1364
sVreadonly
p1365
I00
sVblank
p1366
I00
sVhelp_text
p1367
V__nodoc__
p1368
sVunique
p1369
I00
sVtype
p1370
Vinteger
p1371
ssg1296
(dp1372
g1362
I00
sg1363
VNo default provided.
p1373
sg1365
I00
sg1366
I00
sg1367
V__nodoc__
p1374
sg1369
I00
sg1370
Vinteger
p1375
ssg1299
(dp1376
g1362
I00
sg1363
VNo default provided.
p1377
sg1365
I00
sg1366
I00
sg1367
V__nodoc__
p1378
sg1369
I00
sg1370
Vinteger
p1379
ssg1302
(dp1380
Vrelated_type
p1381
Vto_one
p1382
sg1362
I00
sg1363
VNo default provided.
p1383
sg1365
I00
sg1366
I01
sg1367
V__nodoc__
p1384
sg1369
I00
sg1370
Vrelated
p1385
ssg1311
(dp1386
g1362
I00
sg1363
VNo default provided.
p1387
sg1365
I00
sg1366
I00
sg1367
V__nodoc__
p1388
sg1369
I00
sg1370
Vinteger
p1389
ssg1318
(dp1390
g1362
I00
sg1363
VNo default provided.
p1391
sg1365
I00
sg1366
I00
sg1367
V__nodoc__
p1392
sg1369
I00
sg1370
Vinteger
p1393
ssg1321
(dp1394
g1362
I00
sg1363
VNo default provided.
p1395
sg1365
I00
sg1366
I00
sg1367
V__nodoc__
p1396
sg1369
I00
sg1370
Vinteger
p1397
ssg1324
(dp1398
g1381
Vto_one
p1399
sg1362
I01
sg1363
VNo default provided.
p1400
sg1365
I00
sg1366
I01
sg1367
V__nodoc__
p1401
sg1369
I00
sg1370
Vrelated
p1402
ssg1333
(dp1403
g1381
Vto_one
p1404
sg1362
I00
sg1363
VNo default provided.
p1405
sg1365
I00
sg1366
I00
sg1367
V__nodoc__
p1406
sg1369
I00
sg1370
Vrelated
p1407
ssg1342
(dp1408
g1381
Vto_one
p1409
sg1362
I00
sg1363
VNo default provided.
p1410
sg1365
I00
sg1366
I00
sg1367
V__nodoc__
p1411
sg1369
I00
sg1370
Vrelated
p1412
ssg1345
(dp1413
g1362
I00
sg1363
VNo default provided.
p1414
sg1365
I00
sg1366
I00
sg1367
V__nodoc__
p1415
sg1369
I00
sg1370
Vinteger
p1416
sssg131
V/api/qrs/
p1417
sVdefault_format
p1418
Vapplication/json
p1419
sVdefault_limit
p1420
I20
sVallowed_list_http_methods
p1421
(lp1422
Vget
p1423
assVnnoverrr
p1424
(dp1425
Vfiltering
p1426
(dp1427
Vflat
p1428
(lp1429
Vexact
p1430
asVend
p1431
(lp1432
Vexact
p1433
asVstart
p1434
(lp1435
Vexact
p1436
asVdatatype
p1437
(lp1438
Vexact
p1439
aVin
p1440
aVgt
p1441
aVgte
p1442
aVlt
p1443
aVlte
p1444
aVrange
p1445
asVtimestamp
p1446
(lp1447
Vrange
p1448
aVgt
p1449
aVgte
p1450
aVlt
p1451
aVlte
p1452
asVseconds
p1453
(lp1454
Vexact
p1455
asVno_timestamps
p1456
(lp1457
Vexact
p1458
asVrecord
p1459
(lp1460
Vexact
p1461
aVin
p1462
aVgt
p1463
aVgte
p1464
aVlt
p1465
aVlte
p1466
aVrange
p1467
asVrange
p1468
(lp1469
Vexact
p1470
aVin
p1471
aVgt
p1472
aVgte
p1473
aVlt
p1474
aVlte
p1475
aVrange
p1476
asVuser
p1477
(lp1478
Vexact
p1479
asVmax_values
p1480
(lp1481
Vexact
p1482
asVid
p1483
(lp1484
Vexact
p1485
aVin
p1486
aVgt
p1487
aVgte
p1488
aVlt
p1489
aVlte
p1490
aVrange
p1491
assg70
g1424
sVallowed_detail_http_methods
p1492
(lp1493
sVfields
p1494
(dp1495
g1428
(dp1496
Vnullable
p1497
I00
sVdefault
p1498
VNo default provided.
p1499
sVreadonly
p1500
I00
sVblank
p1501
I00
sVhelp_text
p1502
V__nodoc__
p1503
sVunique
p1504
I00
sVtype
p1505
Vinteger
p1506
ssg1431
(dp1507
g1497
I00
sg1498
VNo default provided.
p1508
sg1500
I00
sg1501
I00
sg1502
V__nodoc__
p1509
sg1504
I00
sg1505
Vinteger
p1510
ssg1434
(dp1511
g1497
I00
sg1498
VNo default provided.
p1512
sg1500
I00
sg1501
I00
sg1502
V__nodoc__
p1513
sg1504
I00
sg1505
Vinteger
p1514
ssg1437
(dp1515
Vrelated_type
p1516
Vto_one
p1517
sg1497
I00
sg1498
VNo default provided.
p1518
sg1500
I00
sg1501
I01
sg1502
V__nodoc__
p1519
sg1504
I00
sg1505
Vrelated
p1520
ssg1446
(dp1521
g1497
I00
sg1498
VNo default provided.
p1522
sg1500
I00
sg1501
I00
sg1502
V__nodoc__
p1523
sg1504
I00
sg1505
Vinteger
p1524
ssg1453
(dp1525
g1497
I00
sg1498
VNo default provided.
p1526
sg1500
I00
sg1501
I00
sg1502
V__nodoc__
p1527
sg1504
I00
sg1505
Vinteger
p1528
ssg1456
(dp1529
g1497
I00
sg1498
VNo default provided.
p1530
sg1500
I00
sg1501
I00
sg1502
V__nodoc__
p1531
sg1504
I00
sg1505
Vinteger
p1532
ssg1459
(dp1533
g1516
Vto_one
p1534
sg1497
I01
sg1498
VNo default provided.
p1535
sg1500
I00
sg1501
I01
sg1502
V__nodoc__
p1536
sg1504
I00
sg1505
Vrelated
p1537
ssg1468
(dp1538
g1516
Vto_one
p1539
sg1497
I00
sg1498
VNo default provided.
p1540
sg1500
I00
sg1501
I00
sg1502
V__nodoc__
p1541
sg1504
I00
sg1505
Vrelated
p1542
ssg1477
(dp1543
g1516
Vto_one
p1544
sg1497
I00
sg1498
VNo default provided.
p1545
sg1500
I00
sg1501
I00
sg1502
V__nodoc__
p1546
sg1504
I00
sg1505
Vrelated
p1547
ssg1480
(dp1548
g1497
I00
sg1498
VNo default provided.
p1549
sg1500
I00
sg1501
I00
sg1502
V__nodoc__
p1550
sg1504
I00
sg1505
Vinteger
p1551
sssg131
V/api/nnoverrr/
p1552
sVdefault_format
p1553
Vapplication/json
p1554
sVdefault_limit
p1555
I20
sVallowed_list_http_methods
p1556
(lp1557
Vget
p1558
assVminuteventilationadjusted
p1559
(dp1560
Vfiltering
p1561
(dp1562
Vflat
p1563
(lp1564
Vexact
p1565
asVend
p1566
(lp1567
Vexact
p1568
asVstart
p1569
(lp1570
Vexact
p1571
asVdatatype
p1572
(lp1573
Vexact
p1574
aVin
p1575
aVgt
p1576
aVgte
p1577
aVlt
p1578
aVlte
p1579
aVrange
p1580
asVtimestamp
p1581
(lp1582
Vrange
p1583
aVgt
p1584
aVgte
p1585
aVlt
p1586
aVlte
p1587
asVseconds
p1588
(lp1589
Vexact
p1590
asVno_timestamps
p1591
(lp1592
Vexact
p1593
asVrecord
p1594
(lp1595
Vexact
p1596
aVin
p1597
aVgt
p1598
aVgte
p1599
aVlt
p1600
aVlte
p1601
aVrange
p1602
asVrange
p1603
(lp1604
Vexact
p1605
aVin
p1606
aVgt
p1607
aVgte
p1608
aVlt
p1609
aVlte
p1610
aVrange
p1611
asVuser
p1612
(lp1613
Vexact
p1614
asVmax_values
p1615
(lp1616
Vexact
p1617
asVid
p1618
(lp1619
Vexact
p1620
aVin
p1621
aVgt
p1622
aVgte
p1623
aVlt
p1624
aVlte
p1625
aVrange
p1626
assg70
g1559
sVallowed_detail_http_methods
p1627
(lp1628
sVfields
p1629
(dp1630
g1563
(dp1631
Vnullable
p1632
I00
sVdefault
p1633
VNo default provided.
p1634
sVreadonly
p1635
I00
sVblank
p1636
I00
sVhelp_text
p1637
V__nodoc__
p1638
sVunique
p1639
I00
sVtype
p1640
Vinteger
p1641
ssg1566
(dp1642
g1632
I00
sg1633
VNo default provided.
p1643
sg1635
I00
sg1636
I00
sg1637
V__nodoc__
p1644
sg1639
I00
sg1640
Vinteger
p1645
ssg1569
(dp1646
g1632
I00
sg1633
VNo default provided.
p1647
sg1635
I00
sg1636
I00
sg1637
V__nodoc__
p1648
sg1639
I00
sg1640
Vinteger
p1649
ssg1572
(dp1650
Vrelated_type
p1651
Vto_one
p1652
sg1632
I00
sg1633
VNo default provided.
p1653
sg1635
I00
sg1636
I01
sg1637
V__nodoc__
p1654
sg1639
I00
sg1640
Vrelated
p1655
ssg1581
(dp1656
g1632
I00
sg1633
VNo default provided.
p1657
sg1635
I00
sg1636
I00
sg1637
V__nodoc__
p1658
sg1639
I00
sg1640
Vinteger
p1659
ssg1588
(dp1660
g1632
I00
sg1633
VNo default provided.
p1661
sg1635
I00
sg1636
I00
sg1637
V__nodoc__
p1662
sg1639
I00
sg1640
Vinteger
p1663
ssg1591
(dp1664
g1632
I00
sg1633
VNo default provided.
p1665
sg1635
I00
sg1636
I00
sg1637
V__nodoc__
p1666
sg1639
I00
sg1640
Vinteger
p1667
ssg1594
(dp1668
g1651
Vto_one
p1669
sg1632
I01
sg1633
VNo default provided.
p1670
sg1635
I00
sg1636
I01
sg1637
V__nodoc__
p1671
sg1639
I00
sg1640
Vrelated
p1672
ssg1603
(dp1673
g1651
Vto_one
p1674
sg1632
I00
sg1633
VNo default provided.
p1675
sg1635
I00
sg1636
I00
sg1637
V__nodoc__
p1676
sg1639
I00
sg1640
Vrelated
p1677
ssg1612
(dp1678
g1651
Vto_one
p1679
sg1632
I00
sg1633
VNo default provided.
p1680
sg1635
I00
sg1636
I00
sg1637
V__nodoc__
p1681
sg1639
I00
sg1640
Vrelated
p1682
ssg1615
(dp1683
g1632
I00
sg1633
VNo default provided.
p1684
sg1635
I00
sg1636
I00
sg1637
V__nodoc__
p1685
sg1639
I00
sg1640
Vinteger
p1686
sssg131
V/api/minuteventilationadjusted/
p1687
sVdefault_format
p1688
Vapplication/json
p1689
sVdefault_limit
p1690
I20
sVallowed_list_http_methods
p1691
(lp1692
Vget
p1693
assVbundle_permission
p1694
(dp1695
Vfiltering
p1696
(dp1697
Vuser_allowed
p1698
(lp1699
Vexact
p1700
aVin
p1701
asVuser_target
p1702
(lp1703
Vexact
p1704
aVin
p1705
asVbundle
p1706
(lp1707
Vexact
p1708
aVin
p1709
assg70
g1694
sVallowed_detail_http_methods
p1710
(lp1711
Vget
p1712
aVdelete
p1713
asVfields
p1714
(dp1715
g1698
(dp1716
Vrelated_type
p1717
Vto_one
p1718
sVnullable
p1719
I00
sVdefault
p1720
VNo default provided.
p1721
sVreadonly
p1722
I00
sVblank
p1723
I00
sVhelp_text
p1724
VA [:r:user].  Maybe specified by URI, email, or ID.  Using a URI is recommended.
p1725
sVunique
p1726
I00
sVtype
p1727
Vrelated
p1728
ssg1702
(dp1729
g1717
Vto_one
p1730
sg1719
I00
sg1720
VNo default provided.
p1731
sg1722
I00
sg1723
I00
sg1724
VThe primary key for this resource. A [:r:user].  Maybe specified by URI, email, or ID.  Using a URI is recommended.
p1732
sg1726
I00
sg1727
Vrelated
p1733
ssVname
p1734
(dp1735
g1719
I01
sg1720
VNo default provided.
p1736
sg1722
I00
sg1723
I01
sg1724
VUnicode string data. Ex: "Hello World"
p1737
sg1726
I00
sg1727
Vstring
p1738
ssg1706
(dp1739
g1717
Vto_one
p1740
sg1719
I00
sg1720
VNo default provided.
p1741
sg1722
I00
sg1723
I00
sg1724
VA reference to [:r:bundle].  Maybe specified by URI or ID.  Using a URI is recommended.
p1742
sg1726
I00
sg1727
Vrelated
p1743
ssVresource_uri
p1744
(dp1745
g1719
I00
sg1720
VNo default provided.
p1746
sg1722
I01
sg1723
I00
sg1724
VThe unique URI where the object resides.
p1747
sg1726
I00
sg1727
Vstring
p1748
sssg131
V/api/bundle_permission/
p1749
sVdefault_format
p1750
Vapplication/json
p1751
sVdefault_limit
p1752
I20
sVallowed_list_http_methods
p1753
(lp1754
Vpost
p1755
aVget
p1756
assVptt
p1757
(dp1758
Vfiltering
p1759
(dp1760
Vflat
p1761
(lp1762
Vexact
p1763
asVend
p1764
(lp1765
Vexact
p1766
asVstart
p1767
(lp1768
Vexact
p1769
asVdatatype
p1770
(lp1771
Vexact
p1772
aVin
p1773
aVgt
p1774
aVgte
p1775
aVlt
p1776
aVlte
p1777
aVrange
p1778
asVtimestamp
p1779
(lp1780
Vrange
p1781
aVgt
p1782
aVgte
p1783
aVlt
p1784
aVlte
p1785
asVseconds
p1786
(lp1787
Vexact
p1788
asVno_timestamps
p1789
(lp1790
Vexact
p1791
asVrecord
p1792
(lp1793
Vexact
p1794
aVin
p1795
aVgt
p1796
aVgte
p1797
aVlt
p1798
aVlte
p1799
aVrange
p1800
asVrange
p1801
(lp1802
Vexact
p1803
aVin
p1804
aVgt
p1805
aVgte
p1806
aVlt
p1807
aVlte
p1808
aVrange
p1809
asVuser
p1810
(lp1811
Vexact
p1812
asVmax_values
p1813
(lp1814
Vexact
p1815
asVid
p1816
(lp1817
Vexact
p1818
aVin
p1819
aVgt
p1820
aVgte
p1821
aVlt
p1822
aVlte
p1823
aVrange
p1824
assg70
g1757
sVallowed_detail_http_methods
p1825
(lp1826
sVfields
p1827
(dp1828
g1761
(dp1829
Vnullable
p1830
I00
sVdefault
p1831
VNo default provided.
p1832
sVreadonly
p1833
I00
sVblank
p1834
I00
sVhelp_text
p1835
V__nodoc__
p1836
sVunique
p1837
I00
sVtype
p1838
Vinteger
p1839
ssg1764
(dp1840
g1830
I00
sg1831
VNo default provided.
p1841
sg1833
I00
sg1834
I00
sg1835
V__nodoc__
p1842
sg1837
I00
sg1838
Vinteger
p1843
ssg1767
(dp1844
g1830
I00
sg1831
VNo default provided.
p1845
sg1833
I00
sg1834
I00
sg1835
V__nodoc__
p1846
sg1837
I00
sg1838
Vinteger
p1847
ssg1770
(dp1848
Vrelated_type
p1849
Vto_one
p1850
sg1830
I00
sg1831
VNo default provided.
p1851
sg1833
I00
sg1834
I01
sg1835
V__nodoc__
p1852
sg1837
I00
sg1838
Vrelated
p1853
ssg1779
(dp1854
g1830
I00
sg1831
VNo default provided.
p1855
sg1833
I00
sg1834
I00
sg1835
V__nodoc__
p1856
sg1837
I00
sg1838
Vinteger
p1857
ssg1786
(dp1858
g1830
I00
sg1831
VNo default provided.
p1859
sg1833
I00
sg1834
I00
sg1835
V__nodoc__
p1860
sg1837
I00
sg1838
Vinteger
p1861
ssg1789
(dp1862
g1830
I00
sg1831
VNo default provided.
p1863
sg1833
I00
sg1834
I00
sg1835
V__nodoc__
p1864
sg1837
I00
sg1838
Vinteger
p1865
ssg1792
(dp1866
g1849
Vto_one
p1867
sg1830
I01
sg1831
VNo default provided.
p1868
sg1833
I00
sg1834
I01
sg1835
V__nodoc__
p1869
sg1837
I00
sg1838
Vrelated
p1870
ssg1801
(dp1871
g1849
Vto_one
p1872
sg1830
I00
sg1831
VNo default provided.
p1873
sg1833
I00
sg1834
I00
sg1835
V__nodoc__
p1874
sg1837
I00
sg1838
Vrelated
p1875
ssg1810
(dp1876
g1849
Vto_one
p1877
sg1830
I00
sg1831
VNo default provided.
p1878
sg1833
I00
sg1834
I00
sg1835
V__nodoc__
p1879
sg1837
I00
sg1838
Vrelated
p1880
ssg1813
(dp1881
g1830
I00
sg1831
VNo default provided.
p1882
sg1833
I00
sg1834
I00
sg1835
V__nodoc__
p1883
sg1837
I00
sg1838
Vinteger
p1884
sssg131
V/api/ptt/
p1885
sVdefault_format
p1886
Vapplication/json
p1887
sVdefault_limit
p1888
I20
sVallowed_list_http_methods
p1889
(lp1890
Vget
p1891
assVconnecttoken
p1892
(dp1893
g70
g1892
sVallowed_detail_http_methods
p1894
(lp1895
Vget
p1896
asVfields
p1897
(dp1898
Vforeign_user_id
p1899
(dp1900
Vnullable
p1901
I00
sVdefault
p1902
VNo default provided.
p1903
sVreadonly
p1904
I00
sVblank
p1905
I00
sVhelp_text
p1906
VUnicode string data. Ex: "Hello World"
p1907
sVunique
p1908
I00
sVtype
p1909
Vstring
p1910
ssVservice
p1911
(dp1912
g1901
I00
sg1902
VNo default provided.
p1913
sg1904
I00
sg1905
I00
sg1906
VUnicode string data. Ex: "Hello World"
p1914
sg1908
I00
sg1909
Vstring
p1915
ssVexpires
p1916
(dp1917
g1901
I01
sg1902
VNo default provided.
p1918
sg1904
I00
sg1905
I00
sg1906
VA date & time as a string. Ex: "2010-11-10T03:07:43"
p1919
sg1908
I00
sg1909
Vdatetime
p1920
ssVtoken
p1921
(dp1922
g1901
I00
sg1902
VNo default provided.
p1923
sg1904
I00
sg1905
I00
sg1906
VUnicode string data. Ex: "Hello World"
p1924
sg1908
I00
sg1909
Vstring
p1925
ssVdata
p1926
(dp1927
g1901
I01
sg1902
V
sg1904
I00
sg1905
I00
sg1906
VUnicode string data. Ex: "Hello World"
p1928
sg1908
I00
sg1909
Vstring
p1929
ssVid
p1930
(dp1931
g1901
I00
sg1902
VNo default provided.
p1932
sg1904
I01
sg1905
I00
sg1906
VThe primary key for this resource. Integer data. Ex: 2673
p1933
sg1908
I01
sg1909
Vinteger
p1934
ssVresource_uri
p1935
(dp1936
g1901
I00
sg1902
VNo default provided.
p1937
sg1904
I01
sg1905
I00
sg1906
VThe unique URI where the object resides.
p1938
sg1908
I00
sg1909
Vstring
p1939
sssg131
V/api/connecttoken/
p1940
sVdefault_format
p1941
Vapplication/json
p1942
sVdefault_limit
p1943
I20
sVallowed_list_http_methods
p1944
(lp1945
Vget
p1946
assVmetric
p1947
(dp1948
Vfiltering
p1949
(dp1950
Vshow_all
p1951
(lp1952
Vexact
p1953
asVid
p1954
(lp1955
Vexact
p1956
aVin
p1957
aVgt
p1958
aVgte
p1959
aVlt
p1960
aVlte
p1961
aVrange
p1962
asVname
p1963
(lp1964
Vexact
p1965
assg70
g1947
sVallowed_detail_http_methods
p1966
(lp1967
Vget
p1968
asVordering
p1969
(lp1970
Vid
p1971
asVfields
p1972
(dp1973
Vdescription
p1974
(dp1975
Vnullable
p1976
I00
sVdefault
p1977
V
sVreadonly
p1978
I01
sVblank
p1979
I01
sVhelp_text
p1980
VDescription of the metric.
p1981
sVunique
p1982
I00
sVtype
p1983
Vstring
p1984
ssVvalue
p1985
(dp1986
g1976
I00
sg1977
VNo default provided.
p1987
sg1978
I00
sg1979
I00
sg1980
VPopulated according the the context of the [:r:range], [:r:record], or [:r:report].  This field is omitted when no context is present.
p1988
sg1982
I00
sg1983
Vstring
p1989
ssg1963
(dp1990
g1976
I00
sg1977
VNo default provided.
p1991
sg1978
I01
sg1979
I00
sg1980
VName of the metric
p1992
sg1982
I01
sg1983
Vstring
p1993
ssVwritable
p1994
(dp1995
g1976
I00
sg1977
VNo default provided.
p1996
sg1978
I01
sg1979
I00
sg1980
VName of the metric
p1997
sg1982
I01
sg1983
Vboolean
p1998
ssg1983
(dp1999
g1976
I00
sg1977
VNo default provided.
p2000
sg1978
I01
sg1979
I00
sg1980
VType of the metric
p2001
sg1982
I01
sg1983
Vstring
p2002
ssg1954
(dp2003
g1976
I00
sg1977
VNo default provided.
p2004
sg1978
I01
sg1979
I00
sg1980
VInteger data. Ex: 2673
p2005
sg1982
I01
sg1983
Vinteger
p2006
ssVunit
p2007
(dp2008
Vrelated_type
p2009
Vto_one
p2010
sg1976
I00
sg1977
VNo default provided.
p2011
sg1978
I01
sg1979
I00
sg1980
VA reference to {self}.  Maybe specified by URI or ID.  Using a URI is recommended.
p2012
sg1982
I00
sg1983
Vrelated
p2013
ssVresource_uri
p2014
(dp2015
g1976
I00
sg1977
VNo default provided.
p2016
sg1978
I01
sg1979
I00
sg1980
VUnicode string data. Ex: "Hello World"
p2017
sg1982
I00
sg1983
Vstring
p2018
sssg131
V/api/metric/
p2019
sVdefault_format
p2020
Vapplication/json
p2021
sVdefault_limit
p2022
I20
sVallowed_list_http_methods
p2023
(lp2024
Vget
p2025
assVsdnn
p2026
(dp2027
Vfiltering
p2028
(dp2029
Vflat
p2030
(lp2031
Vexact
p2032
asVend
p2033
(lp2034
Vexact
p2035
asVstart
p2036
(lp2037
Vexact
p2038
asVdatatype
p2039
(lp2040
Vexact
p2041
aVin
p2042
aVgt
p2043
aVgte
p2044
aVlt
p2045
aVlte
p2046
aVrange
p2047
asVtimestamp
p2048
(lp2049
Vrange
p2050
aVgt
p2051
aVgte
p2052
aVlt
p2053
aVlte
p2054
asVseconds
p2055
(lp2056
Vexact
p2057
asVno_timestamps
p2058
(lp2059
Vexact
p2060
asVrecord
p2061
(lp2062
Vexact
p2063
aVin
p2064
aVgt
p2065
aVgte
p2066
aVlt
p2067
aVlte
p2068
aVrange
p2069
asVrange
p2070
(lp2071
Vexact
p2072
aVin
p2073
aVgt
p2074
aVgte
p2075
aVlt
p2076
aVlte
p2077
aVrange
p2078
asVuser
p2079
(lp2080
Vexact
p2081
asVmax_values
p2082
(lp2083
Vexact
p2084
asVid
p2085
(lp2086
Vexact
p2087
aVin
p2088
aVgt
p2089
aVgte
p2090
aVlt
p2091
aVlte
p2092
aVrange
p2093
assg70
g2026
sVallowed_detail_http_methods
p2094
(lp2095
sVfields
p2096
(dp2097
g2030
(dp2098
Vnullable
p2099
I00
sVdefault
p2100
VNo default provided.
p2101
sVreadonly
p2102
I00
sVblank
p2103
I00
sVhelp_text
p2104
V__nodoc__
p2105
sVunique
p2106
I00
sVtype
p2107
Vinteger
p2108
ssg2033
(dp2109
g2099
I00
sg2100
VNo default provided.
p2110
sg2102
I00
sg2103
I00
sg2104
V__nodoc__
p2111
sg2106
I00
sg2107
Vinteger
p2112
ssg2036
(dp2113
g2099
I00
sg2100
VNo default provided.
p2114
sg2102
I00
sg2103
I00
sg2104
V__nodoc__
p2115
sg2106
I00
sg2107
Vinteger
p2116
ssg2039
(dp2117
Vrelated_type
p2118
Vto_one
p2119
sg2099
I00
sg2100
VNo default provided.
p2120
sg2102
I00
sg2103
I01
sg2104
V__nodoc__
p2121
sg2106
I00
sg2107
Vrelated
p2122
ssg2048
(dp2123
g2099
I00
sg2100
VNo default provided.
p2124
sg2102
I00
sg2103
I00
sg2104
V__nodoc__
p2125
sg2106
I00
sg2107
Vinteger
p2126
ssg2055
(dp2127
g2099
I00
sg2100
VNo default provided.
p2128
sg2102
I00
sg2103
I00
sg2104
V__nodoc__
p2129
sg2106
I00
sg2107
Vinteger
p2130
ssg2058
(dp2131
g2099
I00
sg2100
VNo default provided.
p2132
sg2102
I00
sg2103
I00
sg2104
V__nodoc__
p2133
sg2106
I00
sg2107
Vinteger
p2134
ssg2061
(dp2135
g2118
Vto_one
p2136
sg2099
I01
sg2100
VNo default provided.
p2137
sg2102
I00
sg2103
I01
sg2104
V__nodoc__
p2138
sg2106
I00
sg2107
Vrelated
p2139
ssg2070
(dp2140
g2118
Vto_one
p2141
sg2099
I00
sg2100
VNo default provided.
p2142
sg2102
I00
sg2103
I00
sg2104
V__nodoc__
p2143
sg2106
I00
sg2107
Vrelated
p2144
ssg2079
(dp2145
g2118
Vto_one
p2146
sg2099
I00
sg2100
VNo default provided.
p2147
sg2102
I00
sg2103
I00
sg2104
V__nodoc__
p2148
sg2106
I00
sg2107
Vrelated
p2149
ssg2082
(dp2150
g2099
I00
sg2100
VNo default provided.
p2151
sg2102
I00
sg2103
I00
sg2104
V__nodoc__
p2152
sg2106
I00
sg2107
Vinteger
p2153
sssg131
V/api/sdnn/
p2154
sVdefault_format
p2155
Vapplication/json
p2156
sVdefault_limit
p2157
I20
sVallowed_list_http_methods
p2158
(lp2159
Vget
p2160
assVlabelledobject
p2161
(dp2162
Vfiltering
p2163
(dp2164
Vuser
p2165
(lp2166
Vexact
p2167
aVin
p2168
aVgt
p2169
aVgte
p2170
aVlt
p2171
aVlte
p2172
aVrange
p2173
asVid
p2174
(lp2175
Vexact
p2176
aVin
p2177
aVgt
p2178
aVgte
p2179
aVlt
p2180
aVlte
p2181
aVrange
p2182
asVlabel
p2183
(lp2184
Vexact
p2185
aVin
p2186
aVgt
p2187
aVgte
p2188
aVlt
p2189
aVlte
p2190
aVrange
p2191
assg70
g2161
sVallowed_detail_http_methods
p2192
(lp2193
Vget
p2194
aVput
p2195
aVpatch
p2196
aVdelete
p2197
asVfields
p2198
(dp2199
g2165
(dp2200
Vrelated_type
p2201
Vto_one
p2202
sVnullable
p2203
I01
sVdefault
p2204
VNo default provided.
p2205
sVreadonly
p2206
I00
sVblank
p2207
I00
sVhelp_text
p2208
V__nodoc__
p2209
sVunique
p2210
I00
sVtype
p2211
Vrelated
p2212
ssVobject
p2213
(dp2214
g2203
I00
sg2204
VNo default provided.
p2215
sg2206
I00
sg2207
I00
sg2208
VURI of the object.
p2216
sg2210
I00
sg2211
Vstring
p2217
ssVresource_uri
p2218
(dp2219
g2203
I00
sg2204
VNo default provided.
p2220
sg2206
I01
sg2207
I00
sg2208
VThe unique URI where the object resides.
p2221
sg2210
I00
sg2211
Vstring
p2222
ssg2183
(dp2223
g2201
Vto_one
p2224
sg2203
I00
sg2204
VNo default provided.
p2225
sg2206
I00
sg2207
I00
sg2208
VA single related resource. Can be either a URI or set of nested resource data.
p2226
sg2210
I00
sg2211
Vrelated
p2227
sssg131
V/api/labelledobject/
p2228
sVdefault_format
p2229
Vapplication/json
p2230
sVdefault_limit
p2231
I20
sVallowed_list_http_methods
p2232
(lp2233
Vget
p2234
aVpost
p2235
aVpatch
p2236
assVbreathingrate
p2237
(dp2238
Vfiltering
p2239
(dp2240
Vflat
p2241
(lp2242
Vexact
p2243
asVend
p2244
(lp2245
Vexact
p2246
asVstart
p2247
(lp2248
Vexact
p2249
asVdatatype
p2250
(lp2251
Vexact
p2252
aVin
p2253
aVgt
p2254
aVgte
p2255
aVlt
p2256
aVlte
p2257
aVrange
p2258
asVtimestamp
p2259
(lp2260
Vrange
p2261
aVgt
p2262
aVgte
p2263
aVlt
p2264
aVlte
p2265
asVseconds
p2266
(lp2267
Vexact
p2268
asVno_timestamps
p2269
(lp2270
Vexact
p2271
asVrecord
p2272
(lp2273
Vexact
p2274
aVin
p2275
aVgt
p2276
aVgte
p2277
aVlt
p2278
aVlte
p2279
aVrange
p2280
asVrange
p2281
(lp2282
Vexact
p2283
aVin
p2284
aVgt
p2285
aVgte
p2286
aVlt
p2287
aVlte
p2288
aVrange
p2289
asVuser
p2290
(lp2291
Vexact
p2292
asVmax_values
p2293
(lp2294
Vexact
p2295
asVid
p2296
(lp2297
Vexact
p2298
aVin
p2299
aVgt
p2300
aVgte
p2301
aVlt
p2302
aVlte
p2303
aVrange
p2304
assg70
g2237
sVallowed_detail_http_methods
p2305
(lp2306
sVfields
p2307
(dp2308
g2241
(dp2309
Vnullable
p2310
I00
sVdefault
p2311
VNo default provided.
p2312
sVreadonly
p2313
I00
sVblank
p2314
I00
sVhelp_text
p2315
V__nodoc__
p2316
sVunique
p2317
I00
sVtype
p2318
Vinteger
p2319
ssg2244
(dp2320
g2310
I00
sg2311
VNo default provided.
p2321
sg2313
I00
sg2314
I00
sg2315
V__nodoc__
p2322
sg2317
I00
sg2318
Vinteger
p2323
ssg2247
(dp2324
g2310
I00
sg2311
VNo default provided.
p2325
sg2313
I00
sg2314
I00
sg2315
V__nodoc__
p2326
sg2317
I00
sg2318
Vinteger
p2327
ssg2250
(dp2328
Vrelated_type
p2329
Vto_one
p2330
sg2310
I00
sg2311
VNo default provided.
p2331
sg2313
I00
sg2314
I01
sg2315
V__nodoc__
p2332
sg2317
I00
sg2318
Vrelated
p2333
ssg2259
(dp2334
g2310
I00
sg2311
VNo default provided.
p2335
sg2313
I00
sg2314
I00
sg2315
V__nodoc__
p2336
sg2317
I00
sg2318
Vinteger
p2337
ssg2266
(dp2338
g2310
I00
sg2311
VNo default provided.
p2339
sg2313
I00
sg2314
I00
sg2315
V__nodoc__
p2340
sg2317
I00
sg2318
Vinteger
p2341
ssg2269
(dp2342
g2310
I00
sg2311
VNo default provided.
p2343
sg2313
I00
sg2314
I00
sg2315
V__nodoc__
p2344
sg2317
I00
sg2318
Vinteger
p2345
ssg2272
(dp2346
g2329
Vto_one
p2347
sg2310
I01
sg2311
VNo default provided.
p2348
sg2313
I00
sg2314
I01
sg2315
V__nodoc__
p2349
sg2317
I00
sg2318
Vrelated
p2350
ssg2281
(dp2351
g2329
Vto_one
p2352
sg2310
I00
sg2311
VNo default provided.
p2353
sg2313
I00
sg2314
I00
sg2315
V__nodoc__
p2354
sg2317
I00
sg2318
Vrelated
p2355
ssg2290
(dp2356
g2329
Vto_one
p2357
sg2310
I00
sg2311
VNo default provided.
p2358
sg2313
I00
sg2314
I00
sg2315
V__nodoc__
p2359
sg2317
I00
sg2318
Vrelated
p2360
ssg2293
(dp2361
g2310
I00
sg2311
VNo default provided.
p2362
sg2313
I00
sg2314
I00
sg2315
V__nodoc__
p2363
sg2317
I00
sg2318
Vinteger
p2364
sssg131
V/api/breathingrate/
p2365
sVdefault_format
p2366
Vapplication/json
p2367
sVdefault_limit
p2368
I20
sVallowed_list_http_methods
p2369
(lp2370
Vget
p2371
assVcontenttype
p2372
(dp2373
g70
g2372
sVallowed_detail_http_methods
p2374
(lp2375
Vget
p2376
asVfields
p2377
(dp2378
Vresource_uri
p2379
(dp2380
Vnullable
p2381
I00
sVdefault
p2382
VNo default provided.
p2383
sVreadonly
p2384
I01
sVblank
p2385
I00
sVhelp_text
p2386
VThe unique URI where the object resides.
p2387
sVunique
p2388
I00
sVtype
p2389
Vstring
p2390
sssg131
V/api/contenttype/
p2391
sVdefault_format
p2392
Vapplication/json
p2393
sVdefault_limit
p2394
I20
sVallowed_list_http_methods
p2395
(lp2396
Vget
p2397
assVtemperature
p2398
(dp2399
Vfiltering
p2400
(dp2401
Vflat
p2402
(lp2403
Vexact
p2404
asVend
p2405
(lp2406
Vexact
p2407
asVstart
p2408
(lp2409
Vexact
p2410
asVdatatype
p2411
(lp2412
Vexact
p2413
aVin
p2414
aVgt
p2415
aVgte
p2416
aVlt
p2417
aVlte
p2418
aVrange
p2419
asVtimestamp
p2420
(lp2421
Vrange
p2422
aVgt
p2423
aVgte
p2424
aVlt
p2425
aVlte
p2426
asVseconds
p2427
(lp2428
Vexact
p2429
asVno_timestamps
p2430
(lp2431
Vexact
p2432
asVrecord
p2433
(lp2434
Vexact
p2435
aVin
p2436
aVgt
p2437
aVgte
p2438
aVlt
p2439
aVlte
p2440
aVrange
p2441
asVrange
p2442
(lp2443
Vexact
p2444
aVin
p2445
aVgt
p2446
aVgte
p2447
aVlt
p2448
aVlte
p2449
aVrange
p2450
asVuser
p2451
(lp2452
Vexact
p2453
asVmax_values
p2454
(lp2455
Vexact
p2456
asVid
p2457
(lp2458
Vexact
p2459
aVin
p2460
aVgt
p2461
aVgte
p2462
aVlt
p2463
aVlte
p2464
aVrange
p2465
assg70
g2398
sVallowed_detail_http_methods
p2466
(lp2467
sVfields
p2468
(dp2469
g2402
(dp2470
Vnullable
p2471
I00
sVdefault
p2472
VNo default provided.
p2473
sVreadonly
p2474
I00
sVblank
p2475
I00
sVhelp_text
p2476
V__nodoc__
p2477
sVunique
p2478
I00
sVtype
p2479
Vinteger
p2480
ssg2405
(dp2481
g2471
I00
sg2472
VNo default provided.
p2482
sg2474
I00
sg2475
I00
sg2476
V__nodoc__
p2483
sg2478
I00
sg2479
Vinteger
p2484
ssg2408
(dp2485
g2471
I00
sg2472
VNo default provided.
p2486
sg2474
I00
sg2475
I00
sg2476
V__nodoc__
p2487
sg2478
I00
sg2479
Vinteger
p2488
ssg2411
(dp2489
Vrelated_type
p2490
Vto_one
p2491
sg2471
I00
sg2472
VNo default provided.
p2492
sg2474
I00
sg2475
I01
sg2476
V__nodoc__
p2493
sg2478
I00
sg2479
Vrelated
p2494
ssg2420
(dp2495
g2471
I00
sg2472
VNo default provided.
p2496
sg2474
I00
sg2475
I00
sg2476
V__nodoc__
p2497
sg2478
I00
sg2479
Vinteger
p2498
ssg2427
(dp2499
g2471
I00
sg2472
VNo default provided.
p2500
sg2474
I00
sg2475
I00
sg2476
V__nodoc__
p2501
sg2478
I00
sg2479
Vinteger
p2502
ssg2430
(dp2503
g2471
I00
sg2472
VNo default provided.
p2504
sg2474
I00
sg2475
I00
sg2476
V__nodoc__
p2505
sg2478
I00
sg2479
Vinteger
p2506
ssg2433
(dp2507
g2490
Vto_one
p2508
sg2471
I01
sg2472
VNo default provided.
p2509
sg2474
I00
sg2475
I01
sg2476
V__nodoc__
p2510
sg2478
I00
sg2479
Vrelated
p2511
ssg2442
(dp2512
g2490
Vto_one
p2513
sg2471
I00
sg2472
VNo default provided.
p2514
sg2474
I00
sg2475
I00
sg2476
V__nodoc__
p2515
sg2478
I00
sg2479
Vrelated
p2516
ssg2451
(dp2517
g2490
Vto_one
p2518
sg2471
I00
sg2472
VNo default provided.
p2519
sg2474
I00
sg2475
I00
sg2476
V__nodoc__
p2520
sg2478
I00
sg2479
Vrelated
p2521
ssg2454
(dp2522
g2471
I00
sg2472
VNo default provided.
p2523
sg2474
I00
sg2475
I00
sg2476
V__nodoc__
p2524
sg2478
I00
sg2479
Vinteger
p2525
sssg131
V/api/temperature/
p2526
sVdefault_format
p2527
Vapplication/json
p2528
sVdefault_limit
p2529
I20
sVallowed_list_http_methods
p2530
(lp2531
Vget
p2532
assVoauth2token
p2533
(dp2534
g70
g2533
sVallowed_detail_http_methods
p2535
(lp2536
Vget
p2537
aVdelete
p2538
asVfields
p2539
(dp2540
Vscopes
p2541
(dp2542
Vnullable
p2543
I00
sVdefault
p2544
VNo default provided.
p2545
sVreadonly
p2546
I00
sVblank
p2547
I00
sVhelp_text
p2548
VUnicode string data. Ex: "Hello World"
p2549
sVunique
p2550
I00
sVtype
p2551
Vstring
p2552
ssVexpires_in
p2553
(dp2554
g2543
I00
sg2544
VNo default provided.
p2555
sg2546
I00
sg2547
I00
sg2548
VInteger data. Ex: 2673
p2556
sg2550
I00
sg2551
Vinteger
p2557
ssVtoken_type
p2558
(dp2559
g2543
I00
sg2544
VNo default provided.
p2560
sg2546
I00
sg2547
I00
sg2548
VUnicode string data. Ex: "Hello World"
p2561
sg2550
I00
sg2551
Vstring
p2562
ssVclient
p2563
(dp2564
g2543
I00
sg2544
VNo default provided.
p2565
sg2546
I00
sg2547
I00
sg2548
VUnicode string data. Ex: "Hello World"
p2566
sg2550
I00
sg2551
Vstring
p2567
ssVuser
p2568
(dp2569
g2543
I00
sg2544
VNo default provided.
p2570
sg2546
I00
sg2547
I00
sg2548
VUnicode string data. Ex: "Hello World"
p2571
sg2550
I00
sg2551
Vstring
p2572
ssVresource_uri
p2573
(dp2574
g2543
I00
sg2544
VNo default provided.
p2575
sg2546
I01
sg2547
I00
sg2548
VUnicode string data. Ex: "Hello World"
p2576
sg2550
I00
sg2551
Vstring
p2577
sssg131
V/api/oauth2token/
p2578
sVdefault_format
p2579
Vapplication/json
p2580
sVdefault_limit
p2581
I20
sVallowed_list_http_methods
p2582
(lp2583
Vget
p2584
assVsharetype
p2585
(dp2586
g70
g2585
sVallowed_detail_http_methods
p2587
(lp2588
Vget
p2589
asVfields
p2590
(dp2591
Vresource_uri
p2592
(dp2593
Vnullable
p2594
I00
sVdefault
p2595
VNo default provided.
p2596
sVreadonly
p2597
I01
sVblank
p2598
I00
sVhelp_text
p2599
VThe unique URI where the object resides.
p2600
sVunique
p2601
I00
sVtype
p2602
Vstring
p2603
ssVid
p2604
(dp2605
g2594
I00
sg2595
VNo default provided.
p2606
sg2597
I01
sg2598
I00
sg2599
VThe primary key for this resource. Integer data. Ex: 2673
p2607
sg2601
I00
sg2602
Vinteger
p2608
ssVname
p2609
(dp2610
g2594
I00
sg2595
VNo default provided.
p2611
sg2597
I00
sg2598
I00
sg2599
VUnicode string data. Ex: "Hello World"
p2612
sg2601
I00
sg2602
Vstring
p2613
sssg131
V/api/sharetype/
p2614
sVdefault_format
p2615
Vapplication/json
p2616
sVdefault_limit
p2617
I20
sVallowed_list_http_methods
p2618
(lp2619
Vget
p2620
assVheartratestatus
p2621
(dp2622
Vfiltering
p2623
(dp2624
Vflat
p2625
(lp2626
Vexact
p2627
asVend
p2628
(lp2629
Vexact
p2630
asVstart
p2631
(lp2632
Vexact
p2633
asVdatatype
p2634
(lp2635
Vexact
p2636
aVin
p2637
aVgt
p2638
aVgte
p2639
aVlt
p2640
aVlte
p2641
aVrange
p2642
asVtimestamp
p2643
(lp2644
Vrange
p2645
aVgt
p2646
aVgte
p2647
aVlt
p2648
aVlte
p2649
asVseconds
p2650
(lp2651
Vexact
p2652
asVno_timestamps
p2653
(lp2654
Vexact
p2655
asVrecord
p2656
(lp2657
Vexact
p2658
aVin
p2659
aVgt
p2660
aVgte
p2661
aVlt
p2662
aVlte
p2663
aVrange
p2664
asVrange
p2665
(lp2666
Vexact
p2667
aVin
p2668
aVgt
p2669
aVgte
p2670
aVlt
p2671
aVlte
p2672
aVrange
p2673
asVuser
p2674
(lp2675
Vexact
p2676
asVmax_values
p2677
(lp2678
Vexact
p2679
asVid
p2680
(lp2681
Vexact
p2682
aVin
p2683
aVgt
p2684
aVgte
p2685
aVlt
p2686
aVlte
p2687
aVrange
p2688
assg70
g2621
sVallowed_detail_http_methods
p2689
(lp2690
sVfields
p2691
(dp2692
g2625
(dp2693
Vnullable
p2694
I00
sVdefault
p2695
VNo default provided.
p2696
sVreadonly
p2697
I00
sVblank
p2698
I00
sVhelp_text
p2699
V__nodoc__
p2700
sVunique
p2701
I00
sVtype
p2702
Vinteger
p2703
ssg2628
(dp2704
g2694
I00
sg2695
VNo default provided.
p2705
sg2697
I00
sg2698
I00
sg2699
V__nodoc__
p2706
sg2701
I00
sg2702
Vinteger
p2707
ssg2631
(dp2708
g2694
I00
sg2695
VNo default provided.
p2709
sg2697
I00
sg2698
I00
sg2699
V__nodoc__
p2710
sg2701
I00
sg2702
Vinteger
p2711
ssg2634
(dp2712
Vrelated_type
p2713
Vto_one
p2714
sg2694
I00
sg2695
VNo default provided.
p2715
sg2697
I00
sg2698
I01
sg2699
V__nodoc__
p2716
sg2701
I00
sg2702
Vrelated
p2717
ssg2643
(dp2718
g2694
I00
sg2695
VNo default provided.
p2719
sg2697
I00
sg2698
I00
sg2699
V__nodoc__
p2720
sg2701
I00
sg2702
Vinteger
p2721
ssg2650
(dp2722
g2694
I00
sg2695
VNo default provided.
p2723
sg2697
I00
sg2698
I00
sg2699
V__nodoc__
p2724
sg2701
I00
sg2702
Vinteger
p2725
ssg2653
(dp2726
g2694
I00
sg2695
VNo default provided.
p2727
sg2697
I00
sg2698
I00
sg2699
V__nodoc__
p2728
sg2701
I00
sg2702
Vinteger
p2729
ssg2656
(dp2730
g2713
Vto_one
p2731
sg2694
I01
sg2695
VNo default provided.
p2732
sg2697
I00
sg2698
I01
sg2699
V__nodoc__
p2733
sg2701
I00
sg2702
Vrelated
p2734
ssg2665
(dp2735
g2713
Vto_one
p2736
sg2694
I00
sg2695
VNo default provided.
p2737
sg2697
I00
sg2698
I00
sg2699
V__nodoc__
p2738
sg2701
I00
sg2702
Vrelated
p2739
ssg2674
(dp2740
g2713
Vto_one
p2741
sg2694
I00
sg2695
VNo default provided.
p2742
sg2697
I00
sg2698
I00
sg2699
V__nodoc__
p2743
sg2701
I00
sg2702
Vrelated
p2744
ssg2677
(dp2745
g2694
I00
sg2695
VNo default provided.
p2746
sg2697
I00
sg2698
I00
sg2699
V__nodoc__
p2747
sg2701
I00
sg2702
Vinteger
p2748
sssg131
V/api/heartratestatus/
p2749
sVdefault_format
p2750
Vapplication/json
p2751
sVdefault_limit
p2752
I20
sVallowed_list_http_methods
p2753
(lp2754
Vget
p2755
assVcreateuser
p2756
(dp2757
g70
g2756
sVallowed_detail_http_methods
p2758
(lp2759
sVfields
p2760
(dp2761
Vprofile
p2762
(dp2763
Vrelated_type
p2764
Vto_one
p2765
sVnullable
p2766
I01
sVdefault
p2767
VNo default provided.
p2768
sVreadonly
p2769
I01
sVblank
p2770
I01
sVhelp_text
p2771
VA reference to [:r:profile].  Maybe specified by URI or ID.  Using a URI is recommended.
p2772
sVunique
p2773
I00
sVtype
p2774
Vrelated
p2775
ssVusername
p2776
(dp2777
g2766
I00
sg2767
VNo default provided.
p2778
sg2769
I01
sg2770
I01
sg2771
VSet to be the same as email. Left in place for historical reasons.
p2779
sg2773
I00
sg2774
Vstring
p2780
ssVfirst_name
p2781
(dp2782
g2766
I00
sg2767
V
sg2769
I00
sg2770
I01
sg2771
VUnicode string data. Ex: "Hello World"
p2783
sg2773
I00
sg2774
Vstring
p2784
ssVlast_name
p2785
(dp2786
g2766
I00
sg2767
V
sg2769
I00
sg2770
I01
sg2771
VUnicode string data. Ex: "Hello World"
p2787
sg2773
I00
sg2774
Vstring
p2788
ssVid
p2789
(dp2790
g2766
I00
sg2767
VNo default provided.
p2791
sg2769
I01
sg2770
I00
sg2771
VThe primary key for this resource. The primary key for this resource. Integer data. Ex: 2673
p2792
sg2773
I01
sg2774
Vinteger
p2793
ssVpassword
p2794
(dp2795
g2766
I01
sg2767
VNo default provided.
p2796
sg2769
I00
sg2770
I01
sg2771
VUnicode string data. Ex: "Hello World"
p2797
sg2773
I00
sg2774
Vstring
p2798
ssVemail
p2799
(dp2800
g2766
I00
sg2767
VNo default provided.
p2801
sg2769
I00
sg2770
I00
sg2771
VUnicode string data. Ex: "Hello World"
p2802
sg2773
I00
sg2774
Vstring
p2803
ssVresource_uri
p2804
(dp2805
g2766
I00
sg2767
VNo default provided.
p2806
sg2769
I01
sg2770
I00
sg2771
VThe unique URI where the object resides.
p2807
sg2773
I00
sg2774
Vstring
p2808
sssg131
V/api/createuser/
p2809
sVdefault_format
p2810
Vapplication/json
p2811
sVdefault_limit
p2812
I20
sVallowed_list_http_methods
p2813
(lp2814
Vpost
p2815
assVtrainingroutine
p2816
(dp2817
Vfiltering
p2818
(dp2819
Vusing
p2820
(lp2821
Vexact
p2822
asVactivitytype
p2823
I2
sVid
p2824
(lp2825
Vexact
p2826
aVin
p2827
aVgt
p2828
aVgte
p2829
aVlt
p2830
aVlte
p2831
aVrange
p2832
asVuser
p2833
(lp2834
Vexact
p2835
aVin
p2836
aVgt
p2837
aVgte
p2838
aVlt
p2839
aVlte
p2840
aVrange
p2841
assg70
g2816
sVallowed_detail_http_methods
p2842
(lp2843
Vget
p2844
aVput
p2845
aVpatch
p2846
aVdelete
p2847
asVordering
p2848
(lp2849
Vid
p2850
aVuser
p2851
aVlast_used
p2852
aVactivitytype
p2853
asVfields
p2854
(dp2855
Vlast_used
p2856
(dp2857
Vnullable
p2858
I01
sVdefault
p2859
VNo default provided.
p2860
sVreadonly
p2861
I01
sVblank
p2862
I01
sVhelp_text
p2863
VThe date that the current user last used this TrainingRoutine.
p2864
sVunique
p2865
I00
sVtype
p2866
Vdatetime
p2867
ssVimportfile
p2868
(dp2869
Vrelated_type
p2870
Vto_one
p2871
sg2858
I01
sg2859
VNo default provided.
p2872
sg2861
I01
sg2862
I01
sg2863
VA single related resource. Can be either a URI or set of nested resource data.
p2873
sg2865
I00
sg2866
Vrelated
p2874
ssVdescription
p2875
(dp2876
g2858
I00
sg2859
V
sg2861
I00
sg2862
I01
sg2863
VUnicode string data. Ex: "Hello World"
p2877
sg2865
I00
sg2866
Vstring
p2878
ssg2823
(dp2879
g2870
Vto_one
p2880
sg2858
I01
sg2859
VNo default provided.
p2881
sg2861
I00
sg2862
I01
sg2863
VA reference to [:r:activitytype].  Maybe specified by URI or ID.  Using a URI is recommended.
p2882
sg2865
I00
sg2866
Vrelated
p2883
ssVapplication_metadata
p2884
(dp2885
g2870
Vto_many
p2886
sg2858
I01
sg2859
VNo default provided.
p2887
sg2861
I00
sg2862
I00
sg2863
VAn object that is associated with the parent resource for each application.
p2888
sg2865
I00
sg2866
Vrelated
p2889
ssVname
p2890
(dp2891
g2858
I00
sg2859
VNo default provided.
p2892
sg2861
I00
sg2862
I00
sg2863
VUnicode string data. Ex: "Hello World"
p2893
sg2865
I00
sg2866
Vstring
p2894
ssVsteps
p2895
(dp2896
g2870
Vto_many
p2897
sg2858
I00
sg2859
VNo default provided.
p2898
sg2861
I00
sg2862
I00
sg2863
VMany related resources. Can be either a list of URIs or list of individually nested resource data.
p2899
sg2865
I00
sg2866
Vrelated
p2900
ssg2833
(dp2901
g2870
Vto_one
p2902
sg2858
I01
sg2859
VNo default provided.
p2903
sg2861
I00
sg2862
I00
sg2863
VA [:r:user].  Maybe specified by URI, email, or ID.  Using a URI is recommended.
p2904
sg2865
I00
sg2866
Vrelated
p2905
ssg2820
(dp2906
g2858
I00
sg2859
VNo default provided.
p2907
sg2861
I00
sg2862
I00
sg2863
V__nodoc__
p2908
sg2865
I00
sg2866
Vstring
p2909
ssVresource_uri
p2910
(dp2911
g2858
I00
sg2859
VNo default provided.
p2912
sg2861
I01
sg2862
I00
sg2863
VThe unique URI where the object resides.
p2913
sg2865
I00
sg2866
Vstring
p2914
ssg2824
(dp2915
g2858
I00
sg2859
VNo default provided.
p2916
sg2861
I01
sg2862
I00
sg2863
VThe primary key for this resource. Integer data. Ex: 2673
p2917
sg2865
I01
sg2866
Vinteger
p2918
ssVmetadata
p2919
(dp2920
g2858
I01
sg2859
VNo default provided.
p2921
sg2861
I00
sg2862
I00
sg2863
V
sg2865
I00
sg2866
Vstring
p2922
sssg131
V/api/trainingroutine/
p2923
sVdefault_format
p2924
Vapplication/json
p2925
sVdefault_limit
p2926
I20
sVallowed_list_http_methods
p2927
(lp2928
Vget
p2929
aVpost
p2930
aVpatch
p2931
assVsleepphase
p2932
(dp2933
Vfiltering
p2934
(dp2935
Vflat
p2936
(lp2937
Vexact
p2938
asVend
p2939
(lp2940
Vexact
p2941
asVstart
p2942
(lp2943
Vexact
p2944
asVdatatype
p2945
(lp2946
Vexact
p2947
aVin
p2948
aVgt
p2949
aVgte
p2950
aVlt
p2951
aVlte
p2952
aVrange
p2953
asVtimestamp
p2954
(lp2955
Vrange
p2956
aVgt
p2957
aVgte
p2958
aVlt
p2959
aVlte
p2960
asVseconds
p2961
(lp2962
Vexact
p2963
asVno_timestamps
p2964
(lp2965
Vexact
p2966
asVrecord
p2967
(lp2968
Vexact
p2969
aVin
p2970
aVgt
p2971
aVgte
p2972
aVlt
p2973
aVlte
p2974
aVrange
p2975
asVrange
p2976
(lp2977
Vexact
p2978
aVin
p2979
aVgt
p2980
aVgte
p2981
aVlt
p2982
aVlte
p2983
aVrange
p2984
asVuser
p2985
(lp2986
Vexact
p2987
asVmax_values
p2988
(lp2989
Vexact
p2990
asVid
p2991
(lp2992
Vexact
p2993
aVin
p2994
aVgt
p2995
aVgte
p2996
aVlt
p2997
aVlte
p2998
aVrange
p2999
assg70
g2932
sVallowed_detail_http_methods
p3000
(lp3001
sVfields
p3002
(dp3003
g2936
(dp3004
Vnullable
p3005
I00
sVdefault
p3006
VNo default provided.
p3007
sVreadonly
p3008
I00
sVblank
p3009
I00
sVhelp_text
p3010
V__nodoc__
p3011
sVunique
p3012
I00
sVtype
p3013
Vinteger
p3014
ssg2939
(dp3015
g3005
I00
sg3006
VNo default provided.
p3016
sg3008
I00
sg3009
I00
sg3010
V__nodoc__
p3017
sg3012
I00
sg3013
Vinteger
p3018
ssg2942
(dp3019
g3005
I00
sg3006
VNo default provided.
p3020
sg3008
I00
sg3009
I00
sg3010
V__nodoc__
p3021
sg3012
I00
sg3013
Vinteger
p3022
ssg2945
(dp3023
Vrelated_type
p3024
Vto_one
p3025
sg3005
I00
sg3006
VNo default provided.
p3026
sg3008
I00
sg3009
I01
sg3010
V__nodoc__
p3027
sg3012
I00
sg3013
Vrelated
p3028
ssg2954
(dp3029
g3005
I00
sg3006
VNo default provided.
p3030
sg3008
I00
sg3009
I00
sg3010
V__nodoc__
p3031
sg3012
I00
sg3013
Vinteger
p3032
ssg2961
(dp3033
g3005
I00
sg3006
VNo default provided.
p3034
sg3008
I00
sg3009
I00
sg3010
V__nodoc__
p3035
sg3012
I00
sg3013
Vinteger
p3036
ssg2964
(dp3037
g3005
I00
sg3006
VNo default provided.
p3038
sg3008
I00
sg3009
I00
sg3010
V__nodoc__
p3039
sg3012
I00
sg3013
Vinteger
p3040
ssg2967
(dp3041
g3024
Vto_one
p3042
sg3005
I01
sg3006
VNo default provided.
p3043
sg3008
I00
sg3009
I01
sg3010
V__nodoc__
p3044
sg3012
I00
sg3013
Vrelated
p3045
ssg2976
(dp3046
g3024
Vto_one
p3047
sg3005
I00
sg3006
VNo default provided.
p3048
sg3008
I00
sg3009
I00
sg3010
V__nodoc__
p3049
sg3012
I00
sg3013
Vrelated
p3050
ssg2985
(dp3051
g3024
Vto_one
p3052
sg3005
I00
sg3006
VNo default provided.
p3053
sg3008
I00
sg3009
I00
sg3010
V__nodoc__
p3054
sg3012
I00
sg3013
Vrelated
p3055
ssg2988
(dp3056
g3005
I00
sg3006
VNo default provided.
p3057
sg3008
I00
sg3009
I00
sg3010
V__nodoc__
p3058
sg3012
I00
sg3013
Vinteger
p3059
sssg131
V/api/sleepphase/
p3060
sVdefault_format
p3061
Vapplication/json
p3062
sVdefault_limit
p3063
I20
sVallowed_list_http_methods
p3064
(lp3065
Vget
p3066
assVoauthclient
p3067
(dp3068
g70
g3067
sVallowed_detail_http_methods
p3069
(lp3070
Vget
p3071
aVput
p3072
aVpatch
p3073
asVfields
p3074
(dp3075
Vstatus
p3076
(dp3077
Vnullable
p3078
I00
sVdefault
p3079
VNo default provided.
p3080
sVreadonly
p3081
I00
sVblank
p3082
I00
sVhelp_text
p3083
VUnicode string data. Ex: "Hello World"
p3084
sVunique
p3085
I00
sVtype
p3086
Vstring
p3087
ssVredirect_uris
p3088
(dp3089
g3078
I00
sg3079
VNo default provided.
p3090
sg3081
I00
sg3082
I00
sg3083
VValid callback URIs. Custom protocols are supported in order to redirect to a mobile application.  Plain-text URIs (HTTP) are not allowed.  To specify multiple allowed callback URIs, supply this field as an array.
p3091
sg3085
I00
sg3086
Vstring
p3092
ssVname
p3093
(dp3094
g3078
I00
sg3079
VNo default provided.
p3095
sg3081
I00
sg3082
I00
sg3083
VUnicode string data. Ex: "Hello World"
p3096
sg3085
I01
sg3086
Vstring
p3097
ssVdefault_realm
p3098
(dp3099
Vrelated_type
p3100
Vto_one
p3101
sg3078
I01
sg3079
VNo default provided.
p3102
sg3081
I00
sg3082
I00
sg3083
V'Default scopes' in OAuth2 parlance.
p3103
sg3085
I00
sg3086
Vrelated
p3104
ssVuser
p3105
(dp3106
g3100
Vto_one
p3107
sg3078
I00
sg3079
VNo default provided.
p3108
sg3081
I01
sg3082
I00
sg3083
VA [:r:user].  Maybe specified by URI, email, or ID.  Using a URI is recommended.
p3109
sg3085
I00
sg3086
Vrelated
p3110
ssVsecret
p3111
(dp3112
g3078
I00
sg3079
VNo default provided.
p3113
sg3081
I01
sg3082
I00
sg3083
VA value will be supplied automatically if left blank.
p3114
sg3085
I00
sg3086
Vstring
p3115
ssVclient_id
p3116
(dp3117
g3078
I00
sg3079
V
sg3081
I00
sg3082
I01
sg3083
VA value will be supplied automatically if left blank.
p3118
sg3085
I01
sg3086
Vstring
p3119
ssVresponse_type
p3120
(dp3121
g3078
I00
sg3079
V
sg3081
I00
sg3082
I01
sg3083
VUnicode string data. Ex: "Hello World"
p3122
sg3085
I00
sg3086
Vstring
p3123
ssVrealms
p3124
(dp3125
g3100
Vto_many
p3126
sg3078
I00
sg3079
VNo default provided.
p3127
sg3081
I01
sg3082
I00
sg3083
V'Scopes' in OAuth2 parlance.
p3128
sg3085
I00
sg3086
Vrelated
p3129
ssVgrant_type
p3130
(dp3131
g3078
I00
sg3079
V
sg3081
I00
sg3082
I01
sg3083
VUnicode string data. Ex: "Hello World"
p3132
sg3085
I00
sg3086
Vstring
p3133
ssVid
p3134
(dp3135
g3078
I00
sg3079
VNo default provided.
p3136
sg3081
I01
sg3082
I00
sg3083
VThe primary key for this resource. Integer data. Ex: 2673
p3137
sg3085
I01
sg3086
Vinteger
p3138
ssVresource_uri
p3139
(dp3140
g3078
I00
sg3079
VNo default provided.
p3141
sg3081
I01
sg3082
I00
sg3083
VThe unique URI where the object resides.
p3142
sg3085
I00
sg3086
Vstring
p3143
sssg131
V/api/oauthclient/
p3144
sVdefault_format
p3145
Vapplication/json
p3146
sVdefault_limit
p3147
I20
sVallowed_list_http_methods
p3148
(lp3149
Vget
p3150
assVunit
p3151
(dp3152
g70
g3151
sVallowed_detail_http_methods
p3153
(lp3154
Vget
p3155
asVfields
p3156
(dp3157
Vinfo
p3158
(dp3159
Vnullable
p3160
I00
sVdefault
p3161
V
sVreadonly
p3162
I00
sVblank
p3163
I00
sVhelp_text
p3164
VDescription of the  the unit.
p3165
sVunique
p3166
I00
sVtype
p3167
Vstring
p3168
ssVsi_short
p3169
(dp3170
g3160
I00
sg3161
VNo default provided.
p3171
sg3162
I00
sg3163
I00
sg3164
VUnit symbol as defined in international system (if applicable).
p3172
sg3166
I00
sg3167
Vstring
p3173
ssVid
p3174
(dp3175
g3160
I00
sg3161
VNo default provided.
p3176
sg3162
I01
sg3163
I00
sg3164
VThe primary key for this resource. Integer data. Ex: 2673
p3177
sg3166
I01
sg3167
Vinteger
p3178
ssVsi_long
p3179
(dp3180
g3160
I00
sg3161
VNo default provided.
p3181
sg3162
I00
sg3163
I00
sg3164
VUnit name as defined in international system (if applicable).
p3182
sg3166
I00
sg3167
Vstring
p3183
ssVresource_uri
p3184
(dp3185
g3160
I00
sg3161
VNo default provided.
p3186
sg3162
I01
sg3163
I00
sg3164
VThe unique URI where the object resides.
p3187
sg3166
I00
sg3167
Vstring
p3188
sssg131
V/api/unit/
p3189
sVdefault_format
p3190
Vapplication/json
p3191
sVdefault_limit
p3192
I20
sVallowed_list_http_methods
p3193
(lp3194
Vget
p3195
assVoauth1token
p3196
(dp3197
Vfiltering
p3198
(dp3199
Voauthclient
p3200
(lp3201
Vexact
p3202
aVin
p3203
aVgt
p3204
aVgte
p3205
aVlt
p3206
aVlte
p3207
aVrange
p3208
asVid
p3209
(lp3210
Vexact
p3211
aVin
p3212
aVgt
p3213
aVgte
p3214
aVlt
p3215
aVlte
p3216
aVrange
p3217
asVuser
p3218
(lp3219
Vexact
p3220
aVin
p3221
aVgt
p3222
aVgte
p3223
aVlt
p3224
aVlte
p3225
aVrange
p3226
assg70
g3196
sVallowed_detail_http_methods
p3227
(lp3228
Vget
p3229
aVput
p3230
aVpatch
p3231
aVdelete
p3232
asVordering
p3233
(lp3234
Vid
p3235
aVuser
p3236
aVoauthclient
p3237
asVfields
p3238
(dp3239
Vcreated
p3240
(dp3241
Vnullable
p3242
I00
sVdefault
p3243
I01
sVreadonly
p3244
I00
sVblank
p3245
I01
sVhelp_text
p3246
VA date & time as a string. Ex: "2010-11-10T03:07:43"
p3247
sVunique
p3248
I00
sVtype
p3249
Vdatetime
p3250
ssVaccess_token
p3251
(dp3252
g3242
I00
sg3243
VNo default provided.
p3253
sg3244
I00
sg3245
I00
sg3246
VUnicode string data. Ex: "Hello World"
p3254
sg3248
I01
sg3249
Vstring
p3255
ssg3200
(dp3256
Vrelated_type
p3257
Vto_one
p3258
sg3242
I00
sg3243
VNo default provided.
p3259
sg3244
I00
sg3245
I00
sg3246
VA reference to [:r:oauthclient].  Maybe specified by URI or ID.  Using a URI is recommended.
p3260
sg3248
I00
sg3249
Vrelated
p3261
ssg3218
(dp3262
g3257
Vto_one
p3263
sg3242
I00
sg3243
VNo default provided.
p3264
sg3244
I00
sg3245
I00
sg3246
VA [:r:user].  Maybe specified by URI, email, or ID.  Using a URI is recommended.
p3265
sg3248
I00
sg3249
Vrelated
p3266
ssVaccess_token_secret
p3267
(dp3268
g3242
I00
sg3243
VNo default provided.
p3269
sg3244
I00
sg3245
I00
sg3246
VUnicode string data. Ex: "Hello World"
p3270
sg3248
I00
sg3249
Vstring
p3271
ssg3209
(dp3272
g3242
I00
sg3243
VNo default provided.
p3273
sg3244
I01
sg3245
I00
sg3246
VThe primary key for this resource. Integer data. Ex: 2673
p3274
sg3248
I01
sg3249
Vinteger
p3275
ssVresource_uri
p3276
(dp3277
g3242
I00
sg3243
VNo default provided.
p3278
sg3244
I01
sg3245
I00
sg3246
VThe unique URI where the object resides.
p3279
sg3248
I00
sg3249
Vstring
p3280
sssg131
V/api/oauth1token/
p3281
sVdefault_format
p3282
Vapplication/json
p3283
sVdefault_limit
p3284
I20
sVallowed_list_http_methods
p3285
(lp3286
Vget
p3287
aVpost
p3288
aVpatch
p3289
assVcreateuserrequest
p3290
(dp3291
g70
g3290
sVallowed_detail_http_methods
p3292
(lp3293
Vget
p3294
aVput
p3295
asVfields
p3296
(dp3297
Vprofile
p3298
(dp3299
Vrelated_type
p3300
Vto_one
p3301
sVnullable
p3302
I01
sVdefault
p3303
VNo default provided.
p3304
sVreadonly
p3305
I01
sVblank
p3306
I01
sVhelp_text
p3307
VA reference to [:r:profile].  Maybe specified by URI or ID.  Using a URI is recommended.
p3308
sVunique
p3309
I00
sVtype
p3310
Vrelated
p3311
ssVusername
p3312
(dp3313
g3302
I00
sg3303
VNo default provided.
p3314
sg3305
I01
sg3306
I01
sg3307
VSet to be the same as email. Left in place for historical reasons.
p3315
sg3309
I00
sg3310
Vstring
p3316
ssVfirst_name
p3317
(dp3318
g3302
I00
sg3303
V
sg3305
I00
sg3306
I01
sg3307
VUnicode string data. Ex: "Hello World"
p3319
sg3309
I00
sg3310
Vstring
p3320
ssVlast_name
p3321
(dp3322
g3302
I00
sg3303
V
sg3305
I00
sg3306
I01
sg3307
VUnicode string data. Ex: "Hello World"
p3323
sg3309
I00
sg3310
Vstring
p3324
ssVid
p3325
(dp3326
g3302
I00
sg3303
VNo default provided.
p3327
sg3305
I01
sg3306
I00
sg3307
VThe primary key for this resource. The primary key for this resource. Integer data. Ex: 2673
p3328
sg3309
I01
sg3310
Vinteger
p3329
ssVpassword
p3330
(dp3331
g3302
I01
sg3303
VNo default provided.
p3332
sg3305
I00
sg3306
I01
sg3307
VUnicode string data. Ex: "Hello World"
p3333
sg3309
I00
sg3310
Vstring
p3334
ssVemail
p3335
(dp3336
g3302
I00
sg3303
VNo default provided.
p3337
sg3305
I00
sg3306
I00
sg3307
VUnicode string data. Ex: "Hello World"
p3338
sg3309
I00
sg3310
Vstring
p3339
ssVresource_uri
p3340
(dp3341
g3302
I00
sg3303
VNo default provided.
p3342
sg3305
I01
sg3306
I00
sg3307
VThe unique URI where the object resides.
p3343
sg3309
I00
sg3310
Vstring
p3344
sssg131
V/api/createuserrequest/
p3345
sVdefault_format
p3346
Vapplication/json
p3347
sVdefault_limit
p3348
I20
sVallowed_list_http_methods
p3349
(lp3350
Vpost
p3351
assVresetpassword
p3352
(dp3353
g70
g3352
sVallowed_detail_http_methods
p3354
(lp3355
Vget
p3356
aVput
p3357
asVfields
p3358
(dp3359
Vpassword
p3360
(dp3361
Vnullable
p3362
I00
sVdefault
p3363
VNo default provided.
p3364
sVreadonly
p3365
I00
sVblank
p3366
I00
sVhelp_text
p3367
VUnicode string data. Ex: "Hello World"
p3368
sVunique
p3369
I00
sVtype
p3370
Vstring
p3371
ssVemail
p3372
(dp3373
g3362
I00
sg3363
VNo default provided.
p3374
sg3365
I00
sg3366
I00
sg3367
VUnicode string data. Ex: "Hello World"
p3375
sg3369
I00
sg3370
Vstring
p3376
sssg131
V/api/resetpassword/
p3377
sVdefault_format
p3378
Vapplication/json
p3379
sVdefault_limit
p3380
I20
sVallowed_list_http_methods
p3381
(lp3382
Vpost
p3383
assVtemperaturestatus
p3384
(dp3385
Vfiltering
p3386
(dp3387
Vflat
p3388
(lp3389
Vexact
p3390
asVend
p3391
(lp3392
Vexact
p3393
asVstart
p3394
(lp3395
Vexact
p3396
asVdatatype
p3397
(lp3398
Vexact
p3399
aVin
p3400
aVgt
p3401
aVgte
p3402
aVlt
p3403
aVlte
p3404
aVrange
p3405
asVtimestamp
p3406
(lp3407
Vrange
p3408
aVgt
p3409
aVgte
p3410
aVlt
p3411
aVlte
p3412
asVseconds
p3413
(lp3414
Vexact
p3415
asVno_timestamps
p3416
(lp3417
Vexact
p3418
asVrecord
p3419
(lp3420
Vexact
p3421
aVin
p3422
aVgt
p3423
aVgte
p3424
aVlt
p3425
aVlte
p3426
aVrange
p3427
asVrange
p3428
(lp3429
Vexact
p3430
aVin
p3431
aVgt
p3432
aVgte
p3433
aVlt
p3434
aVlte
p3435
aVrange
p3436
asVuser
p3437
(lp3438
Vexact
p3439
asVmax_values
p3440
(lp3441
Vexact
p3442
asVid
p3443
(lp3444
Vexact
p3445
aVin
p3446
aVgt
p3447
aVgte
p3448
aVlt
p3449
aVlte
p3450
aVrange
p3451
assg70
g3384
sVallowed_detail_http_methods
p3452
(lp3453
sVfields
p3454
(dp3455
g3388
(dp3456
Vnullable
p3457
I00
sVdefault
p3458
VNo default provided.
p3459
sVreadonly
p3460
I00
sVblank
p3461
I00
sVhelp_text
p3462
V__nodoc__
p3463
sVunique
p3464
I00
sVtype
p3465
Vinteger
p3466
ssg3391
(dp3467
g3457
I00
sg3458
VNo default provided.
p3468
sg3460
I00
sg3461
I00
sg3462
V__nodoc__
p3469
sg3464
I00
sg3465
Vinteger
p3470
ssg3394
(dp3471
g3457
I00
sg3458
VNo default provided.
p3472
sg3460
I00
sg3461
I00
sg3462
V__nodoc__
p3473
sg3464
I00
sg3465
Vinteger
p3474
ssg3397
(dp3475
Vrelated_type
p3476
Vto_one
p3477
sg3457
I00
sg3458
VNo default provided.
p3478
sg3460
I00
sg3461
I01
sg3462
V__nodoc__
p3479
sg3464
I00
sg3465
Vrelated
p3480
ssg3406
(dp3481
g3457
I00
sg3458
VNo default provided.
p3482
sg3460
I00
sg3461
I00
sg3462
V__nodoc__
p3483
sg3464
I00
sg3465
Vinteger
p3484
ssg3413
(dp3485
g3457
I00
sg3458
VNo default provided.
p3486
sg3460
I00
sg3461
I00
sg3462
V__nodoc__
p3487
sg3464
I00
sg3465
Vinteger
p3488
ssg3416
(dp3489
g3457
I00
sg3458
VNo default provided.
p3490
sg3460
I00
sg3461
I00
sg3462
V__nodoc__
p3491
sg3464
I00
sg3465
Vinteger
p3492
ssg3419
(dp3493
g3476
Vto_one
p3494
sg3457
I01
sg3458
VNo default provided.
p3495
sg3460
I00
sg3461
I01
sg3462
V__nodoc__
p3496
sg3464
I00
sg3465
Vrelated
p3497
ssg3428
(dp3498
g3476
Vto_one
p3499
sg3457
I00
sg3458
VNo default provided.
p3500
sg3460
I00
sg3461
I00
sg3462
V__nodoc__
p3501
sg3464
I00
sg3465
Vrelated
p3502
ssg3437
(dp3503
g3476
Vto_one
p3504
sg3457
I00
sg3458
VNo default provided.
p3505
sg3460
I00
sg3461
I00
sg3462
V__nodoc__
p3506
sg3464
I00
sg3465
Vrelated
p3507
ssg3440
(dp3508
g3457
I00
sg3458
VNo default provided.
p3509
sg3460
I00
sg3461
I00
sg3462
V__nodoc__
p3510
sg3464
I00
sg3465
Vinteger
p3511
sssg131
V/api/temperaturestatus/
p3512
sVdefault_format
p3513
Vapplication/json
p3514
sVdefault_limit
p3515
I20
sVallowed_list_http_methods
p3516
(lp3517
Vget
p3518
assVcadence
p3519
(dp3520
Vfiltering
p3521
(dp3522
Vflat
p3523
(lp3524
Vexact
p3525
asVend
p3526
(lp3527
Vexact
p3528
asVstart
p3529
(lp3530
Vexact
p3531
asVdatatype
p3532
(lp3533
Vexact
p3534
aVin
p3535
aVgt
p3536
aVgte
p3537
aVlt
p3538
aVlte
p3539
aVrange
p3540
asVtimestamp
p3541
(lp3542
Vrange
p3543
aVgt
p3544
aVgte
p3545
aVlt
p3546
aVlte
p3547
asVseconds
p3548
(lp3549
Vexact
p3550
asVno_timestamps
p3551
(lp3552
Vexact
p3553
asVrecord
p3554
(lp3555
Vexact
p3556
aVin
p3557
aVgt
p3558
aVgte
p3559
aVlt
p3560
aVlte
p3561
aVrange
p3562
asVrange
p3563
(lp3564
Vexact
p3565
aVin
p3566
aVgt
p3567
aVgte
p3568
aVlt
p3569
aVlte
p3570
aVrange
p3571
asVuser
p3572
(lp3573
Vexact
p3574
asVmax_values
p3575
(lp3576
Vexact
p3577
asVid
p3578
(lp3579
Vexact
p3580
aVin
p3581
aVgt
p3582
aVgte
p3583
aVlt
p3584
aVlte
p3585
aVrange
p3586
assg70
g3519
sVallowed_detail_http_methods
p3587
(lp3588
sVfields
p3589
(dp3590
g3523
(dp3591
Vnullable
p3592
I00
sVdefault
p3593
VNo default provided.
p3594
sVreadonly
p3595
I00
sVblank
p3596
I00
sVhelp_text
p3597
V__nodoc__
p3598
sVunique
p3599
I00
sVtype
p3600
Vinteger
p3601
ssg3526
(dp3602
g3592
I00
sg3593
VNo default provided.
p3603
sg3595
I00
sg3596
I00
sg3597
V__nodoc__
p3604
sg3599
I00
sg3600
Vinteger
p3605
ssg3529
(dp3606
g3592
I00
sg3593
VNo default provided.
p3607
sg3595
I00
sg3596
I00
sg3597
V__nodoc__
p3608
sg3599
I00
sg3600
Vinteger
p3609
ssg3532
(dp3610
Vrelated_type
p3611
Vto_one
p3612
sg3592
I00
sg3593
VNo default provided.
p3613
sg3595
I00
sg3596
I01
sg3597
V__nodoc__
p3614
sg3599
I00
sg3600
Vrelated
p3615
ssg3541
(dp3616
g3592
I00
sg3593
VNo default provided.
p3617
sg3595
I00
sg3596
I00
sg3597
V__nodoc__
p3618
sg3599
I00
sg3600
Vinteger
p3619
ssg3548
(dp3620
g3592
I00
sg3593
VNo default provided.
p3621
sg3595
I00
sg3596
I00
sg3597
V__nodoc__
p3622
sg3599
I00
sg3600
Vinteger
p3623
ssg3551
(dp3624
g3592
I00
sg3593
VNo default provided.
p3625
sg3595
I00
sg3596
I00
sg3597
V__nodoc__
p3626
sg3599
I00
sg3600
Vinteger
p3627
ssg3554
(dp3628
g3611
Vto_one
p3629
sg3592
I01
sg3593
VNo default provided.
p3630
sg3595
I00
sg3596
I01
sg3597
V__nodoc__
p3631
sg3599
I00
sg3600
Vrelated
p3632
ssg3563
(dp3633
g3611
Vto_one
p3634
sg3592
I00
sg3593
VNo default provided.
p3635
sg3595
I00
sg3596
I00
sg3597
V__nodoc__
p3636
sg3599
I00
sg3600
Vrelated
p3637
ssg3572
(dp3638
g3611
Vto_one
p3639
sg3592
I00
sg3593
VNo default provided.
p3640
sg3595
I00
sg3596
I00
sg3597
V__nodoc__
p3641
sg3599
I00
sg3600
Vrelated
p3642
ssg3575
(dp3643
g3592
I00
sg3593
VNo default provided.
p3644
sg3595
I00
sg3596
I00
sg3597
V__nodoc__
p3645
sg3599
I00
sg3600
Vinteger
p3646
sssg131
V/api/cadence/
p3647
sVdefault_format
p3648
Vapplication/json
p3649
sVdefault_limit
p3650
I20
sVallowed_list_http_methods
p3651
(lp3652
Vget
p3653
assVrecord
p3654
(dp3655
Vfiltering
p3656
(dp3657
Vend
p3658
(lp3659
Vexact
p3660
aVrange
p3661
aVgt
p3662
aVgte
p3663
aVlt
p3664
aVlte
p3665
asVinclude_metrics
p3666
(lp3667
Vexact
p3668
asVstart
p3669
(lp3670
Vexact
p3671
aVrange
p3672
aVgt
p3673
aVgte
p3674
aVlt
p3675
aVlte
p3676
asVlast_modified
p3677
(lp3678
Vexact
p3679
aVin
p3680
aVrange
p3681
aVgt
p3682
aVgte
p3683
aVlt
p3684
aVlte
p3685
asVinclude_histograms
p3686
(lp3687
Vexact
p3688
asVuser
p3689
(lp3690
Vexact
p3691
aVin
p3692
aVgt
p3693
aVgte
p3694
aVlt
p3695
aVlte
p3696
aVrange
p3697
asVdevice
p3698
(lp3699
Vexact
p3700
aVin
p3701
aVgt
p3702
aVgte
p3703
aVlt
p3704
aVlte
p3705
aVrange
p3706
asVid
p3707
(lp3708
Vexact
p3709
aVin
p3710
aVgt
p3711
aVgte
p3712
aVlt
p3713
aVlte
p3714
aVrange
p3715
assg70
g3654
sVallowed_detail_http_methods
p3716
(lp3717
Vget
p3718
aVput
p3719
aVpatch
p3720
aVdelete
p3721
asVordering
p3722
(lp3723
Vid
p3724
aVstart
p3725
aVend
p3726
aVdevice
p3727
aVuser
p3728
aVlast_modified
p3729
asVfields
p3730
(dp3731
Vstatus
p3732
(dp3733
Vnullable
p3734
I00
sVdefault
p3735
VNo default provided.
p3736
sVreadonly
p3737
I01
sVblank
p3738
I00
sVhelp_text
p3739
VOne of "realtime", "realtime_complete", "syncing", "complete", "queued", "processing", "error" or "incomplete". "Realtime" means that the Record has been created by HxSolo for realtime tracking but hasn't been synced yet. "Complete" and "incomplete" indicate whether or not the record currently has a complete set of data in the database. "Queued" indicates the record is queued for processing. "processing" indicates the record is currently being processed. "error" indicates that an error was encountered while processing the record.
p3740
sVunique
p3741
I00
sVtype
p3742
Vstring
p3743
ssVdev_id
p3744
(dp3745
g3734
I00
sg3735
V
sg3737
I00
sg3738
I00
sg3739
Vdev_id: Device ID (phone) 32 char.
p3746
sg3741
I00
sg3742
Vstring
p3747
ssVimportfile
p3748
(dp3749
Vrelated_type
p3750
Vto_one
p3751
sg3734
I01
sg3735
VNo default provided.
p3752
sg3737
I01
sg3738
I01
sg3739
VA single related resource. Can be either a URI or set of nested resource data.
p3753
sg3741
I00
sg3742
Vrelated
p3754
ssg3658
(dp3755
g3734
I01
sg3735
VNo default provided.
p3756
sg3737
I00
sg3738
I01
sg3739
VRecording end. An integer indicating the number of 256ths of a second that have passed since Jan 1, 1970 UTC, ie. a traditional timestamp, multiplied by 256.
p3757
sg3741
I00
sg3742
Vinteger
p3758
ssVfirmware_rev
p3759
(dp3760
g3734
I00
sg3735
V000
p3761
sg3737
I00
sg3738
I00
sg3739
Vfirmware_rev: Hexoskin Firmware revision, char.
p3762
sg3741
I00
sg3742
Vstring
p3763
ssVsoft_uid
p3764
(dp3765
g3734
I00
sg3735
V
sg3737
I00
sg3738
I00
sg3739
Vsoft_uid: Software UID.
p3766
sg3741
I00
sg3742
Vstring
p3767
ssVdevice_start
p3768
(dp3769
g3734
I00
sg3735
V
sg3737
I00
sg3738
I01
sg3739
VOriginal recording start time from the Hexoskin device.
p3770
sg3741
I00
sg3742
Vinteger
p3771
ssVsoft_protocole
p3772
(dp3773
g3734
I00
sg3735
I0
sg3737
I00
sg3738
I00
sg3739
VInteger data. Ex: 2673
p3774
sg3741
I00
sg3742
Vinteger
p3775
ssVstart_date
p3776
(dp3777
g3734
I00
sg3735
VNo default provided.
p3778
sg3737
I01
sg3738
I00
sg3739
VA date & time as a string. Ex: "2010-11-10T03:07:43"
p3779
sg3741
I00
sg3742
Vdatetime
p3780
ssVmetrics
p3781
(dp3782
g3750
Vto_many
p3783
sg3734
I01
sg3735
VNo default provided.
p3784
sg3737
I01
sg3738
I01
sg3739
VThis field will contain an array of the metrics specified in `include_metrics`. If this argument is not supplied or there are no metrics for the given Range, it will be empty.
p3785
sg3741
I00
sg3742
Vrelated
p3786
ssg3669
(dp3787
g3734
I01
sg3735
VNo default provided.
p3788
sg3737
I00
sg3738
I01
sg3739
VRecording start. An integer indicating the number of 256ths of a second that have passed since Jan 1, 1970 UTC, ie. a traditional timestamp, multiplied by 256.
p3789
sg3741
I00
sg3742
Vinteger
p3790
ssg3677
(dp3791
g3734
I00
sg3735
VNo default provided.
p3792
sg3737
I01
sg3738
I00
sg3739
VA date & time as a string. Ex: "2010-11-10T03:07:43"
p3793
sg3741
I00
sg3742
Vdatetime
p3794
ssg3689
(dp3795
g3750
Vto_one
p3796
sg3734
I00
sg3735
VNo default provided.
p3797
sg3737
I00
sg3738
I00
sg3739
VA [:r:user].  Maybe specified by URI, email, or ID.  Using a URI is recommended.
p3798
sg3741
I00
sg3742
Vrelated
p3799
ssg3698
(dp3800
g3750
Vto_one
p3801
sg3734
I01
sg3735
VNo default provided.
p3802
sg3737
I00
sg3738
I01
sg3739
VA reference to [:r:device].  Maybe specified by URI or ID.  Using a URI is recommended.
p3803
sg3741
I00
sg3742
Vrelated
p3804
ssg3707
(dp3805
g3734
I00
sg3735
VNo default provided.
p3806
sg3737
I01
sg3738
I00
sg3739
VThe primary key for this resource. Integer data. Ex: 2673
p3807
sg3741
I01
sg3742
Vinteger
p3808
ssVdata_status
p3809
(dp3810
g3734
I01
sg3735
VNo default provided.
p3811
sg3737
I01
sg3738
I00
sg3739
VInformation on the underlying data.
p3812
sg3741
I00
sg3742
Vstring
p3813
ssVresource_uri
p3814
(dp3815
g3734
I00
sg3735
VNo default provided.
p3816
sg3737
I01
sg3738
I00
sg3739
VThe unique URI where the object resides.
p3817
sg3741
I00
sg3742
Vstring
p3818
sssg131
V/api/record/
p3819
sVdefault_format
p3820
Vapplication/json
p3821
sVdefault_limit
p3822
I20
sVallowed_list_http_methods
p3823
(lp3824
Vget
p3825
aVpost
p3826
assVprofile
p3827
(dp3828
Vfiltering
p3829
(dp3830
Vid
p3831
(lp3832
Vexact
p3833
aVin
p3834
aVgt
p3835
aVgte
p3836
aVlt
p3837
aVlte
p3838
aVrange
p3839
asVuser
p3840
(lp3841
Vexact
p3842
aVin
p3843
aVgt
p3844
aVgte
p3845
aVlt
p3846
aVlte
p3847
aVrange
p3848
assg70
g3827
sVallowed_detail_http_methods
p3849
(lp3850
Vget
p3851
aVput
p3852
aVpatch
p3853
asVordering
p3854
(lp3855
Vid
p3856
aVuser
p3857
asVfields
p3858
(dp3859
Vpreferences
p3860
(dp3861
Vnullable
p3862
I01
sVdefault
p3863
VNo default provided.
p3864
sVreadonly
p3865
I00
sVblank
p3866
I00
sVhelp_text
p3867
VFree-form object of user preferences
p3868
sVunique
p3869
I00
sVtype
p3870
Vstring
p3871
ssVgender
p3872
(dp3873
g3862
I00
sg3863
V
sg3865
I00
sg3866
I01
sg3867
Vuser's gender
p3874
sg3869
I00
sg3870
Vstring
p3875
ssg3840
(dp3876
Vrelated_type
p3877
Vto_one
p3878
sg3862
I00
sg3863
VNo default provided.
p3879
sg3865
I01
sg3866
I00
sg3867
VThis field is only present when viewing a profile not already embedded in its user object.
p3880
sg3869
I00
sg3870
Vrelated
p3881
ssVdate_of_birth
p3882
(dp3883
g3862
I01
sg3863
VNo default provided.
p3884
sg3865
I00
sg3866
I01
sg3867
VA date as a string. Ex: "2010-11-10"
p3885
sg3869
I00
sg3870
Vdate
p3886
ssVunit_system
p3887
(dp3888
g3862
I00
sg3863
VNo default provided.
p3889
sg3865
I00
sg3866
I01
sg3867
VEither "metric" or "imperial". This is the units system use to generate reports.
p3890
sg3869
I00
sg3870
Vinteger
p3891
ssVfitness
p3892
(dp3893
g3862
I01
sg3863
VNo default provided.
p3894
sg3865
I01
sg3866
I00
sg3867
VAn object containing asynchronous values describing the user's fitness.
p3895
sg3869
I00
sg3870
Vstring
p3896
ssg3831
(dp3897
g3862
I00
sg3863
VNo default provided.
p3898
sg3865
I01
sg3866
I00
sg3867
VThe primary key for this resource. Integer data. Ex: 2673
p3899
sg3869
I01
sg3870
Vinteger
p3900
ssVresource_uri
p3901
(dp3902
g3862
I00
sg3863
VNo default provided.
p3903
sg3865
I01
sg3866
I00
sg3867
VThe unique URI where the object resides.
p3904
sg3869
I00
sg3870
Vstring
p3905
sssg131
V/api/profile/
p3906
sVdefault_format
p3907
Vapplication/json
p3908
sVdefault_limit
p3909
I20
sVallowed_list_http_methods
p3910
(lp3911
Vget
p3912
assVbreathingratestatus
p3913
(dp3914
Vfiltering
p3915
(dp3916
Vflat
p3917
(lp3918
Vexact
p3919
asVend
p3920
(lp3921
Vexact
p3922
asVstart
p3923
(lp3924
Vexact
p3925
asVdatatype
p3926
(lp3927
Vexact
p3928
aVin
p3929
aVgt
p3930
aVgte
p3931
aVlt
p3932
aVlte
p3933
aVrange
p3934
asVtimestamp
p3935
(lp3936
Vrange
p3937
aVgt
p3938
aVgte
p3939
aVlt
p3940
aVlte
p3941
asVseconds
p3942
(lp3943
Vexact
p3944
asVno_timestamps
p3945
(lp3946
Vexact
p3947
asVrecord
p3948
(lp3949
Vexact
p3950
aVin
p3951
aVgt
p3952
aVgte
p3953
aVlt
p3954
aVlte
p3955
aVrange
p3956
asVrange
p3957
(lp3958
Vexact
p3959
aVin
p3960
aVgt
p3961
aVgte
p3962
aVlt
p3963
aVlte
p3964
aVrange
p3965
asVuser
p3966
(lp3967
Vexact
p3968
asVmax_values
p3969
(lp3970
Vexact
p3971
asVid
p3972
(lp3973
Vexact
p3974
aVin
p3975
aVgt
p3976
aVgte
p3977
aVlt
p3978
aVlte
p3979
aVrange
p3980
assg70
g3913
sVallowed_detail_http_methods
p3981
(lp3982
sVfields
p3983
(dp3984
g3917
(dp3985
Vnullable
p3986
I00
sVdefault
p3987
VNo default provided.
p3988
sVreadonly
p3989
I00
sVblank
p3990
I00
sVhelp_text
p3991
V__nodoc__
p3992
sVunique
p3993
I00
sVtype
p3994
Vinteger
p3995
ssg3920
(dp3996
g3986
I00
sg3987
VNo default provided.
p3997
sg3989
I00
sg3990
I00
sg3991
V__nodoc__
p3998
sg3993
I00
sg3994
Vinteger
p3999
ssg3923
(dp4000
g3986
I00
sg3987
VNo default provided.
p4001
sg3989
I00
sg3990
I00
sg3991
V__nodoc__
p4002
sg3993
I00
sg3994
Vinteger
p4003
ssg3926
(dp4004
Vrelated_type
p4005
Vto_one
p4006
sg3986
I00
sg3987
VNo default provided.
p4007
sg3989
I00
sg3990
I01
sg3991
V__nodoc__
p4008
sg3993
I00
sg3994
Vrelated
p4009
ssg3935
(dp4010
g3986
I00
sg3987
VNo default provided.
p4011
sg3989
I00
sg3990
I00
sg3991
V__nodoc__
p4012
sg3993
I00
sg3994
Vinteger
p4013
ssg3942
(dp4014
g3986
I00
sg3987
VNo default provided.
p4015
sg3989
I00
sg3990
I00
sg3991
V__nodoc__
p4016
sg3993
I00
sg3994
Vinteger
p4017
ssg3945
(dp4018
g3986
I00
sg3987
VNo default provided.
p4019
sg3989
I00
sg3990
I00
sg3991
V__nodoc__
p4020
sg3993
I00
sg3994
Vinteger
p4021
ssg3948
(dp4022
g4005
Vto_one
p4023
sg3986
I01
sg3987
VNo default provided.
p4024
sg3989
I00
sg3990
I01
sg3991
V__nodoc__
p4025
sg3993
I00
sg3994
Vrelated
p4026
ssg3957
(dp4027
g4005
Vto_one
p4028
sg3986
I00
sg3987
VNo default provided.
p4029
sg3989
I00
sg3990
I00
sg3991
V__nodoc__
p4030
sg3993
I00
sg3994
Vrelated
p4031
ssg3966
(dp4032
g4005
Vto_one
p4033
sg3986
I00
sg3987
VNo default provided.
p4034
sg3989
I00
sg3990
I00
sg3991
V__nodoc__
p4035
sg3993
I00
sg3994
Vrelated
p4036
ssg3969
(dp4037
g3986
I00
sg3987
VNo default provided.
p4038
sg3989
I00
sg3990
I00
sg3991
V__nodoc__
p4039
sg3993
I00
sg3994
Vinteger
p4040
sssg131
V/api/breathingratestatus/
p4041
sVdefault_format
p4042
Vapplication/json
p4043
sVdefault_limit
p4044
I20
sVallowed_list_http_methods
p4045
(lp4046
Vget
p4047
assVnninterval
p4048
(dp4049
Vfiltering
p4050
(dp4051
Vflat
p4052
(lp4053
Vexact
p4054
asVend
p4055
(lp4056
Vexact
p4057
asVstart
p4058
(lp4059
Vexact
p4060
asVdatatype
p4061
(lp4062
Vexact
p4063
aVin
p4064
aVgt
p4065
aVgte
p4066
aVlt
p4067
aVlte
p4068
aVrange
p4069
asVtimestamp
p4070
(lp4071
Vrange
p4072
aVgt
p4073
aVgte
p4074
aVlt
p4075
aVlte
p4076
asVseconds
p4077
(lp4078
Vexact
p4079
asVno_timestamps
p4080
(lp4081
Vexact
p4082
asVrecord
p4083
(lp4084
Vexact
p4085
aVin
p4086
aVgt
p4087
aVgte
p4088
aVlt
p4089
aVlte
p4090
aVrange
p4091
asVrange
p4092
(lp4093
Vexact
p4094
aVin
p4095
aVgt
p4096
aVgte
p4097
aVlt
p4098
aVlte
p4099
aVrange
p4100
asVuser
p4101
(lp4102
Vexact
p4103
asVmax_values
p4104
(lp4105
Vexact
p4106
asVid
p4107
(lp4108
Vexact
p4109
aVin
p4110
aVgt
p4111
aVgte
p4112
aVlt
p4113
aVlte
p4114
aVrange
p4115
assg70
g4048
sVallowed_detail_http_methods
p4116
(lp4117
sVfields
p4118
(dp4119
g4052
(dp4120
Vnullable
p4121
I00
sVdefault
p4122
VNo default provided.
p4123
sVreadonly
p4124
I00
sVblank
p4125
I00
sVhelp_text
p4126
V__nodoc__
p4127
sVunique
p4128
I00
sVtype
p4129
Vinteger
p4130
ssg4055
(dp4131
g4121
I00
sg4122
VNo default provided.
p4132
sg4124
I00
sg4125
I00
sg4126
V__nodoc__
p4133
sg4128
I00
sg4129
Vinteger
p4134
ssg4058
(dp4135
g4121
I00
sg4122
VNo default provided.
p4136
sg4124
I00
sg4125
I00
sg4126
V__nodoc__
p4137
sg4128
I00
sg4129
Vinteger
p4138
ssg4061
(dp4139
Vrelated_type
p4140
Vto_one
p4141
sg4121
I00
sg4122
VNo default provided.
p4142
sg4124
I00
sg4125
I01
sg4126
V__nodoc__
p4143
sg4128
I00
sg4129
Vrelated
p4144
ssg4070
(dp4145
g4121
I00
sg4122
VNo default provided.
p4146
sg4124
I00
sg4125
I00
sg4126
V__nodoc__
p4147
sg4128
I00
sg4129
Vinteger
p4148
ssg4077
(dp4149
g4121
I00
sg4122
VNo default provided.
p4150
sg4124
I00
sg4125
I00
sg4126
V__nodoc__
p4151
sg4128
I00
sg4129
Vinteger
p4152
ssg4080
(dp4153
g4121
I00
sg4122
VNo default provided.
p4154
sg4124
I00
sg4125
I00
sg4126
V__nodoc__
p4155
sg4128
I00
sg4129
Vinteger
p4156
ssg4083
(dp4157
g4140
Vto_one
p4158
sg4121
I01
sg4122
VNo default provided.
p4159
sg4124
I00
sg4125
I01
sg4126
V__nodoc__
p4160
sg4128
I00
sg4129
Vrelated
p4161
ssg4092
(dp4162
g4140
Vto_one
p4163
sg4121
I00
sg4122
VNo default provided.
p4164
sg4124
I00
sg4125
I00
sg4126
V__nodoc__
p4165
sg4128
I00
sg4129
Vrelated
p4166
ssg4101
(dp4167
g4140
Vto_one
p4168
sg4121
I00
sg4122
VNo default provided.
p4169
sg4124
I00
sg4125
I00
sg4126
V__nodoc__
p4170
sg4128
I00
sg4129
Vrelated
p4171
ssg4104
(dp4172
g4121
I00
sg4122
VNo default provided.
p4173
sg4124
I00
sg4125
I00
sg4126
V__nodoc__
p4174
sg4128
I00
sg4129
Vinteger
p4175
sssg131
V/api/nninterval/
p4176
sVdefault_format
p4177
Vapplication/json
p4178
sVdefault_limit
p4179
I20
sVallowed_list_http_methods
p4180
(lp4181
Vget
p4182
assVtrack
p4183
(dp4184
Vfiltering
p4185
(dp4186
Vuser
p4187
(lp4188
Vexact
p4189
aVin
p4190
aVgt
p4191
aVgte
p4192
aVlt
p4193
aVlte
p4194
aVrange
p4195
asVrange
p4196
(lp4197
Vexact
p4198
aVin
p4199
aVgt
p4200
aVgte
p4201
aVlt
p4202
aVlte
p4203
aVrange
p4204
asVid
p4205
(lp4206
Vexact
p4207
aVin
p4208
aVgt
p4209
aVgte
p4210
aVlt
p4211
aVlte
p4212
aVrange
p4213
asVend_date
p4214
(lp4215
Vexact
p4216
aVgt
p4217
aVgte
p4218
aVlt
p4219
aVlte
p4220
asVstart_date
p4221
(lp4222
Vexact
p4223
aVgt
p4224
aVgte
p4225
aVlt
p4226
aVlte
p4227
assg70
g4183
sVallowed_detail_http_methods
p4228
(lp4229
Vget
p4230
aVput
p4231
aVpatch
p4232
aVdelete
p4233
asVordering
p4234
(lp4235
Vid
p4236
aVuser
p4237
aVrange
p4238
aVstart_date
p4239
aVend_date
p4240
asVfields
p4241
(dp4242
Vdistance
p4243
(dp4244
Vnullable
p4245
I00
sVdefault
p4246
VNo default provided.
p4247
sVreadonly
p4248
I01
sVblank
p4249
I01
sVhelp_text
p4250
VFloating point numeric data. Ex: 26.73
p4251
sVunique
p4252
I00
sVtype
p4253
Vfloat
p4254
ssVimportfile
p4255
(dp4256
Vrelated_type
p4257
Vto_one
p4258
sg4245
I01
sg4246
VNo default provided.
p4259
sg4248
I01
sg4249
I01
sg4250
VA single related resource. Can be either a URI or set of nested resource data.
p4260
sg4252
I00
sg4253
Vrelated
p4261
ssVname
p4262
(dp4263
g4245
I00
sg4246
V
sg4248
I00
sg4249
I01
sg4250
VUnicode string data. Ex: "Hello World"
p4264
sg4252
I00
sg4253
Vstring
p4265
ssg4214
(dp4266
g4245
I01
sg4246
VNo default provided.
p4267
sg4248
I01
sg4249
I01
sg4250
VA date & time as a string. Ex: "2010-11-10T03:07:43"
p4268
sg4252
I00
sg4253
Vdatetime
p4269
ssVarea
p4270
(dp4271
g4245
I01
sg4246
VNo default provided.
p4272
sg4248
I00
sg4249
I00
sg4250
VGeometry data.
p4273
sg4252
I00
sg4253
Vgeometry
p4274
ssg4221
(dp4275
g4245
I01
sg4246
VNo default provided.
p4276
sg4248
I01
sg4249
I01
sg4250
VA date & time as a string. Ex: "2010-11-10T03:07:43"
p4277
sg4252
I00
sg4253
Vdatetime
p4278
ssg4196
(dp4279
g4257
Vto_one
p4280
sg4245
I01
sg4246
VNo default provided.
p4281
sg4248
I00
sg4249
I01
sg4250
VA reference to [:r:range].  Maybe specified by URI or ID.  Using a URI is recommended.
p4282
sg4252
I00
sg4253
Vrelated
p4283
ssg4187
(dp4284
g4257
Vto_one
p4285
sg4245
I00
sg4246
VNo default provided.
p4286
sg4248
I00
sg4249
I00
sg4250
VA [:r:user].  Maybe specified by URI, email, or ID.  Using a URI is recommended.
p4287
sg4252
I00
sg4253
Vrelated
p4288
ssg4205
(dp4289
g4245
I00
sg4246
VNo default provided.
p4290
sg4248
I01
sg4249
I00
sg4250
VThe primary key for this resource. Integer data. Ex: 2673
p4291
sg4252
I01
sg4253
Vinteger
p4292
ssVresource_uri
p4293
(dp4294
g4245
I00
sg4246
VNo default provided.
p4295
sg4248
I01
sg4249
I00
sg4250
VThe unique URI where the object resides.
p4296
sg4252
I00
sg4253
Vstring
p4297
sssg131
V/api/track/
p4298
sVdefault_format
p4299
Vapplication/json
p4300
sVdefault_limit
p4301
I20
sVallowed_list_http_methods
p4302
(lp4303
Vget
p4304
aVpost
p4305
aVpatch
p4306
assVdeviceposition
p4307
(dp4308
Vfiltering
p4309
(dp4310
Vflat
p4311
(lp4312
Vexact
p4313
asVend
p4314
(lp4315
Vexact
p4316
asVstart
p4317
(lp4318
Vexact
p4319
asVdatatype
p4320
(lp4321
Vexact
p4322
aVin
p4323
aVgt
p4324
aVgte
p4325
aVlt
p4326
aVlte
p4327
aVrange
p4328
asVtimestamp
p4329
(lp4330
Vrange
p4331
aVgt
p4332
aVgte
p4333
aVlt
p4334
aVlte
p4335
asVseconds
p4336
(lp4337
Vexact
p4338
asVno_timestamps
p4339
(lp4340
Vexact
p4341
asVrecord
p4342
(lp4343
Vexact
p4344
aVin
p4345
aVgt
p4346
aVgte
p4347
aVlt
p4348
aVlte
p4349
aVrange
p4350
asVrange
p4351
(lp4352
Vexact
p4353
aVin
p4354
aVgt
p4355
aVgte
p4356
aVlt
p4357
aVlte
p4358
aVrange
p4359
asVuser
p4360
(lp4361
Vexact
p4362
asVmax_values
p4363
(lp4364
Vexact
p4365
asVid
p4366
(lp4367
Vexact
p4368
aVin
p4369
aVgt
p4370
aVgte
p4371
aVlt
p4372
aVlte
p4373
aVrange
p4374
assg70
g4307
sVallowed_detail_http_methods
p4375
(lp4376
sVfields
p4377
(dp4378
g4311
(dp4379
Vnullable
p4380
I00
sVdefault
p4381
VNo default provided.
p4382
sVreadonly
p4383
I00
sVblank
p4384
I00
sVhelp_text
p4385
V__nodoc__
p4386
sVunique
p4387
I00
sVtype
p4388
Vinteger
p4389
ssg4314
(dp4390
g4380
I00
sg4381
VNo default provided.
p4391
sg4383
I00
sg4384
I00
sg4385
V__nodoc__
p4392
sg4387
I00
sg4388
Vinteger
p4393
ssg4317
(dp4394
g4380
I00
sg4381
VNo default provided.
p4395
sg4383
I00
sg4384
I00
sg4385
V__nodoc__
p4396
sg4387
I00
sg4388
Vinteger
p4397
ssg4320
(dp4398
Vrelated_type
p4399
Vto_one
p4400
sg4380
I00
sg4381
VNo default provided.
p4401
sg4383
I00
sg4384
I01
sg4385
V__nodoc__
p4402
sg4387
I00
sg4388
Vrelated
p4403
ssg4329
(dp4404
g4380
I00
sg4381
VNo default provided.
p4405
sg4383
I00
sg4384
I00
sg4385
V__nodoc__
p4406
sg4387
I00
sg4388
Vinteger
p4407
ssg4336
(dp4408
g4380
I00
sg4381
VNo default provided.
p4409
sg4383
I00
sg4384
I00
sg4385
V__nodoc__
p4410
sg4387
I00
sg4388
Vinteger
p4411
ssg4339
(dp4412
g4380
I00
sg4381
VNo default provided.
p4413
sg4383
I00
sg4384
I00
sg4385
V__nodoc__
p4414
sg4387
I00
sg4388
Vinteger
p4415
ssg4342
(dp4416
g4399
Vto_one
p4417
sg4380
I01
sg4381
VNo default provided.
p4418
sg4383
I00
sg4384
I01
sg4385
V__nodoc__
p4419
sg4387
I00
sg4388
Vrelated
p4420
ssg4351
(dp4421
g4399
Vto_one
p4422
sg4380
I00
sg4381
VNo default provided.
p4423
sg4383
I00
sg4384
I00
sg4385
V__nodoc__
p4424
sg4387
I00
sg4388
Vrelated
p4425
ssg4360
(dp4426
g4399
Vto_one
p4427
sg4380
I00
sg4381
VNo default provided.
p4428
sg4383
I00
sg4384
I00
sg4385
V__nodoc__
p4429
sg4387
I00
sg4388
Vrelated
p4430
ssg4363
(dp4431
g4380
I00
sg4381
VNo default provided.
p4432
sg4383
I00
sg4384
I00
sg4385
V__nodoc__
p4433
sg4387
I00
sg4388
Vinteger
p4434
sssg131
V/api/deviceposition/
p4435
sVdefault_format
p4436
Vapplication/json
p4437
sVdefault_limit
p4438
I20
sVallowed_list_http_methods
p4439
(lp4440
Vget
p4441
assVactivity
p4442
(dp4443
Vfiltering
p4444
(dp4445
Vflat
p4446
(lp4447
Vexact
p4448
asVend
p4449
(lp4450
Vexact
p4451
asVstart
p4452
(lp4453
Vexact
p4454
asVdatatype
p4455
(lp4456
Vexact
p4457
aVin
p4458
aVgt
p4459
aVgte
p4460
aVlt
p4461
aVlte
p4462
aVrange
p4463
asVtimestamp
p4464
(lp4465
Vrange
p4466
aVgt
p4467
aVgte
p4468
aVlt
p4469
aVlte
p4470
asVseconds
p4471
(lp4472
Vexact
p4473
asVno_timestamps
p4474
(lp4475
Vexact
p4476
asVrecord
p4477
(lp4478
Vexact
p4479
aVin
p4480
aVgt
p4481
aVgte
p4482
aVlt
p4483
aVlte
p4484
aVrange
p4485
asVrange
p4486
(lp4487
Vexact
p4488
aVin
p4489
aVgt
p4490
aVgte
p4491
aVlt
p4492
aVlte
p4493
aVrange
p4494
asVuser
p4495
(lp4496
Vexact
p4497
asVmax_values
p4498
(lp4499
Vexact
p4500
asVid
p4501
(lp4502
Vexact
p4503
aVin
p4504
aVgt
p4505
aVgte
p4506
aVlt
p4507
aVlte
p4508
aVrange
p4509
assg70
g4442
sVallowed_detail_http_methods
p4510
(lp4511
sVfields
p4512
(dp4513
g4446
(dp4514
Vnullable
p4515
I00
sVdefault
p4516
VNo default provided.
p4517
sVreadonly
p4518
I00
sVblank
p4519
I00
sVhelp_text
p4520
V__nodoc__
p4521
sVunique
p4522
I00
sVtype
p4523
Vinteger
p4524
ssg4449
(dp4525
g4515
I00
sg4516
VNo default provided.
p4526
sg4518
I00
sg4519
I00
sg4520
V__nodoc__
p4527
sg4522
I00
sg4523
Vinteger
p4528
ssg4452
(dp4529
g4515
I00
sg4516
VNo default provided.
p4530
sg4518
I00
sg4519
I00
sg4520
V__nodoc__
p4531
sg4522
I00
sg4523
Vinteger
p4532
ssg4455
(dp4533
Vrelated_type
p4534
Vto_one
p4535
sg4515
I00
sg4516
VNo default provided.
p4536
sg4518
I00
sg4519
I01
sg4520
V__nodoc__
p4537
sg4522
I00
sg4523
Vrelated
p4538
ssg4464
(dp4539
g4515
I00
sg4516
VNo default provided.
p4540
sg4518
I00
sg4519
I00
sg4520
V__nodoc__
p4541
sg4522
I00
sg4523
Vinteger
p4542
ssg4471
(dp4543
g4515
I00
sg4516
VNo default provided.
p4544
sg4518
I00
sg4519
I00
sg4520
V__nodoc__
p4545
sg4522
I00
sg4523
Vinteger
p4546
ssg4474
(dp4547
g4515
I00
sg4516
VNo default provided.
p4548
sg4518
I00
sg4519
I00
sg4520
V__nodoc__
p4549
sg4522
I00
sg4523
Vinteger
p4550
ssg4477
(dp4551
g4534
Vto_one
p4552
sg4515
I01
sg4516
VNo default provided.
p4553
sg4518
I00
sg4519
I01
sg4520
V__nodoc__
p4554
sg4522
I00
sg4523
Vrelated
p4555
ssg4486
(dp4556
g4534
Vto_one
p4557
sg4515
I00
sg4516
VNo default provided.
p4558
sg4518
I00
sg4519
I00
sg4520
V__nodoc__
p4559
sg4522
I00
sg4523
Vrelated
p4560
ssg4495
(dp4561
g4534
Vto_one
p4562
sg4515
I00
sg4516
VNo default provided.
p4563
sg4518
I00
sg4519
I00
sg4520
V__nodoc__
p4564
sg4522
I00
sg4523
Vrelated
p4565
ssg4498
(dp4566
g4515
I00
sg4516
VNo default provided.
p4567
sg4518
I00
sg4519
I00
sg4520
V__nodoc__
p4568
sg4522
I00
sg4523
Vinteger
p4569
sssg131
V/api/activity/
p4570
sVdefault_format
p4571
Vapplication/json
p4572
sVdefault_limit
p4573
I20
sVallowed_list_http_methods
p4574
(lp4575
Vget
p4576
assVtriangular
p4577
(dp4578
Vfiltering
p4579
(dp4580
Vflat
p4581
(lp4582
Vexact
p4583
asVend
p4584
(lp4585
Vexact
p4586
asVstart
p4587
(lp4588
Vexact
p4589
asVdatatype
p4590
(lp4591
Vexact
p4592
aVin
p4593
aVgt
p4594
aVgte
p4595
aVlt
p4596
aVlte
p4597
aVrange
p4598
asVtimestamp
p4599
(lp4600
Vrange
p4601
aVgt
p4602
aVgte
p4603
aVlt
p4604
aVlte
p4605
asVseconds
p4606
(lp4607
Vexact
p4608
asVno_timestamps
p4609
(lp4610
Vexact
p4611
asVrecord
p4612
(lp4613
Vexact
p4614
aVin
p4615
aVgt
p4616
aVgte
p4617
aVlt
p4618
aVlte
p4619
aVrange
p4620
asVrange
p4621
(lp4622
Vexact
p4623
aVin
p4624
aVgt
p4625
aVgte
p4626
aVlt
p4627
aVlte
p4628
aVrange
p4629
asVuser
p4630
(lp4631
Vexact
p4632
asVmax_values
p4633
(lp4634
Vexact
p4635
asVid
p4636
(lp4637
Vexact
p4638
aVin
p4639
aVgt
p4640
aVgte
p4641
aVlt
p4642
aVlte
p4643
aVrange
p4644
assg70
g4577
sVallowed_detail_http_methods
p4645
(lp4646
sVfields
p4647
(dp4648
g4581
(dp4649
Vnullable
p4650
I00
sVdefault
p4651
VNo default provided.
p4652
sVreadonly
p4653
I00
sVblank
p4654
I00
sVhelp_text
p4655
V__nodoc__
p4656
sVunique
p4657
I00
sVtype
p4658
Vinteger
p4659
ssg4584
(dp4660
g4650
I00
sg4651
VNo default provided.
p4661
sg4653
I00
sg4654
I00
sg4655
V__nodoc__
p4662
sg4657
I00
sg4658
Vinteger
p4663
ssg4587
(dp4664
g4650
I00
sg4651
VNo default provided.
p4665
sg4653
I00
sg4654
I00
sg4655
V__nodoc__
p4666
sg4657
I00
sg4658
Vinteger
p4667
ssg4590
(dp4668
Vrelated_type
p4669
Vto_one
p4670
sg4650
I00
sg4651
VNo default provided.
p4671
sg4653
I00
sg4654
I01
sg4655
V__nodoc__
p4672
sg4657
I00
sg4658
Vrelated
p4673
ssg4599
(dp4674
g4650
I00
sg4651
VNo default provided.
p4675
sg4653
I00
sg4654
I00
sg4655
V__nodoc__
p4676
sg4657
I00
sg4658
Vinteger
p4677
ssg4606
(dp4678
g4650
I00
sg4651
VNo default provided.
p4679
sg4653
I00
sg4654
I00
sg4655
V__nodoc__
p4680
sg4657
I00
sg4658
Vinteger
p4681
ssg4609
(dp4682
g4650
I00
sg4651
VNo default provided.
p4683
sg4653
I00
sg4654
I00
sg4655
V__nodoc__
p4684
sg4657
I00
sg4658
Vinteger
p4685
ssg4612
(dp4686
g4669
Vto_one
p4687
sg4650
I01
sg4651
VNo default provided.
p4688
sg4653
I00
sg4654
I01
sg4655
V__nodoc__
p4689
sg4657
I00
sg4658
Vrelated
p4690
ssg4621
(dp4691
g4669
Vto_one
p4692
sg4650
I00
sg4651
VNo default provided.
p4693
sg4653
I00
sg4654
I00
sg4655
V__nodoc__
p4694
sg4657
I00
sg4658
Vrelated
p4695
ssg4630
(dp4696
g4669
Vto_one
p4697
sg4650
I00
sg4651
VNo default provided.
p4698
sg4653
I00
sg4654
I00
sg4655
V__nodoc__
p4699
sg4657
I00
sg4658
Vrelated
p4700
ssg4633
(dp4701
g4650
I00
sg4651
VNo default provided.
p4702
sg4653
I00
sg4654
I00
sg4655
V__nodoc__
p4703
sg4657
I00
sg4658
Vinteger
p4704
sssg131
V/api/triangular/
p4705
sVdefault_format
p4706
Vapplication/json
p4707
sVdefault_limit
p4708
I20
sVallowed_list_http_methods
p4709
(lp4710
Vget
p4711
assVbundle
p4712
(dp4713
g70
g4712
sVallowed_detail_http_methods
p4714
(lp4715
Vget
p4716
asVfields
p4717
(dp4718
Vresource_uri
p4719
(dp4720
Vnullable
p4721
I00
sVdefault
p4722
VNo default provided.
p4723
sVreadonly
p4724
I01
sVblank
p4725
I00
sVhelp_text
p4726
VThe unique URI where the object resides.
p4727
sVunique
p4728
I00
sVtype
p4729
Vstring
p4730
ssVid
p4731
(dp4732
g4721
I00
sg4722
V
sg4724
I00
sg4725
I01
sg4726
VThe primary key for this resource. Integer data. Ex: 2673
p4733
sg4728
I01
sg4729
Vinteger
p4734
ssVname
p4735
(dp4736
g4721
I00
sg4722
VNo default provided.
p4737
sg4724
I00
sg4725
I00
sg4726
VUnicode string data. Ex: "Hello World"
p4738
sg4728
I01
sg4729
Vstring
p4739
sssg131
V/api/bundle/
p4740
sVdefault_format
p4741
Vapplication/json
p4742
sVdefault_limit
p4743
I20
sVallowed_list_http_methods
p4744
(lp4745
Vget
p4746
assVactivityattributevalue
p4747
(dp4748
Vfiltering
p4749
(dp4750
Vactivityattribute
p4751
(lp4752
Vin
p4753
aVexact
p4754
asVvalue
p4755
(lp4756
Vin
p4757
aVexact
p4758
aVgt
p4759
aVgte
p4760
aVlt
p4761
aVlte
p4762
asVstart
p4763
(lp4764
Vin
p4765
aVexact
p4766
aVgt
p4767
aVgte
p4768
aVlt
p4769
aVlte
p4770
asVrange
p4771
(lp4772
Vin
p4773
aVexact
p4774
asVuser
p4775
(lp4776
Vin
p4777
aVexact
p4778
asVid
p4779
(lp4780
Vin
p4781
aVexact
p4782
assg70
g4747
sVallowed_detail_http_methods
p4783
(lp4784
Vget
p4785
asVordering
p4786
(lp4787
Vid
p4788
aVuser
p4789
aVstart
p4790
aVrange
p4791
aVvalue
p4792
asVfields
p4793
(dp4794
g4751
(dp4795
Vrelated_type
p4796
Vto_one
p4797
sVnullable
p4798
I00
sVdefault
p4799
VNo default provided.
p4800
sVreadonly
p4801
I00
sVblank
p4802
I00
sVhelp_text
p4803
VA reference to [:r:activityattribute].  Maybe specified by URI or ID.  Using a URI is recommended.
p4804
sVunique
p4805
I00
sVtype
p4806
Vrelated
p4807
ssg4755
(dp4808
g4798
I00
sg4799
VNo default provided.
p4809
sg4801
I00
sg4802
I00
sg4803
VFloating point numeric data. Ex: 26.73
p4810
sg4805
I00
sg4806
Vfloat
p4811
ssVnote
p4812
(dp4813
g4798
I00
sg4799
VNo default provided.
p4814
sg4801
I00
sg4802
I01
sg4803
VUnicode string data. Ex: "Hello World"
p4815
sg4805
I00
sg4806
Vstring
p4816
ssg4763
(dp4817
g4798
I00
sg4799
VNo default provided.
p4818
sg4801
I00
sg4802
I01
sg4803
V An integer indicating the number of 256ths of a second that have passed since Jan 1, 1970 UTC, ie. a traditional timestamp, multiplied by 256.
p4819
sg4805
I00
sg4806
Vinteger
p4820
ssg4771
(dp4821
g4796
Vto_one
p4822
sg4798
I00
sg4799
VNo default provided.
p4823
sg4801
I00
sg4802
I00
sg4803
VA reference to [:r:range].  Maybe specified by URI or ID.  Using a URI is recommended.
p4824
sg4805
I00
sg4806
Vrelated
p4825
ssg4779
(dp4826
g4798
I00
sg4799
VNo default provided.
p4827
sg4801
I01
sg4802
I00
sg4803
VThe primary key for this resource. Integer data. Ex: 2673
p4828
sg4805
I01
sg4806
Vinteger
p4829
ssVresource_uri
p4830
(dp4831
g4798
I00
sg4799
VNo default provided.
p4832
sg4801
I01
sg4802
I00
sg4803
VThe unique URI where the object resides.
p4833
sg4805
I00
sg4806
Vstring
p4834
sssg131
V/api/activityattributevalue/
p4835
sVdefault_format
p4836
Vapplication/json
p4837
sVdefault_limit
p4838
I20
sVallowed_list_http_methods
p4839
(lp4840
Vget
p4841
assVhrvhf
p4842
(dp4843
Vfiltering
p4844
(dp4845
Vflat
p4846
(lp4847
Vexact
p4848
asVend
p4849
(lp4850
Vexact
p4851
asVstart
p4852
(lp4853
Vexact
p4854
asVdatatype
p4855
(lp4856
Vexact
p4857
aVin
p4858
aVgt
p4859
aVgte
p4860
aVlt
p4861
aVlte
p4862
aVrange
p4863
asVtimestamp
p4864
(lp4865
Vrange
p4866
aVgt
p4867
aVgte
p4868
aVlt
p4869
aVlte
p4870
asVseconds
p4871
(lp4872
Vexact
p4873
asVno_timestamps
p4874
(lp4875
Vexact
p4876
asVrecord
p4877
(lp4878
Vexact
p4879
aVin
p4880
aVgt
p4881
aVgte
p4882
aVlt
p4883
aVlte
p4884
aVrange
p4885
asVrange
p4886
(lp4887
Vexact
p4888
aVin
p4889
aVgt
p4890
aVgte
p4891
aVlt
p4892
aVlte
p4893
aVrange
p4894
asVuser
p4895
(lp4896
Vexact
p4897
asVmax_values
p4898
(lp4899
Vexact
p4900
asVid
p4901
(lp4902
Vexact
p4903
aVin
p4904
aVgt
p4905
aVgte
p4906
aVlt
p4907
aVlte
p4908
aVrange
p4909
assg70
g4842
sVallowed_detail_http_methods
p4910
(lp4911
sVfields
p4912
(dp4913
g4846
(dp4914
Vnullable
p4915
I00
sVdefault
p4916
VNo default provided.
p4917
sVreadonly
p4918
I00
sVblank
p4919
I00
sVhelp_text
p4920
V__nodoc__
p4921
sVunique
p4922
I00
sVtype
p4923
Vinteger
p4924
ssg4849
(dp4925
g4915
I00
sg4916
VNo default provided.
p4926
sg4918
I00
sg4919
I00
sg4920
V__nodoc__
p4927
sg4922
I00
sg4923
Vinteger
p4928
ssg4852
(dp4929
g4915
I00
sg4916
VNo default provided.
p4930
sg4918
I00
sg4919
I00
sg4920
V__nodoc__
p4931
sg4922
I00
sg4923
Vinteger
p4932
ssg4855
(dp4933
Vrelated_type
p4934
Vto_one
p4935
sg4915
I00
sg4916
VNo default provided.
p4936
sg4918
I00
sg4919
I01
sg4920
V__nodoc__
p4937
sg4922
I00
sg4923
Vrelated
p4938
ssg4864
(dp4939
g4915
I00
sg4916
VNo default provided.
p4940
sg4918
I00
sg4919
I00
sg4920
V__nodoc__
p4941
sg4922
I00
sg4923
Vinteger
p4942
ssg4871
(dp4943
g4915
I00
sg4916
VNo default provided.
p4944
sg4918
I00
sg4919
I00
sg4920
V__nodoc__
p4945
sg4922
I00
sg4923
Vinteger
p4946
ssg4874
(dp4947
g4915
I00
sg4916
VNo default provided.
p4948
sg4918
I00
sg4919
I00
sg4920
V__nodoc__
p4949
sg4922
I00
sg4923
Vinteger
p4950
ssg4877
(dp4951
g4934
Vto_one
p4952
sg4915
I01
sg4916
VNo default provided.
p4953
sg4918
I00
sg4919
I01
sg4920
V__nodoc__
p4954
sg4922
I00
sg4923
Vrelated
p4955
ssg4886
(dp4956
g4934
Vto_one
p4957
sg4915
I00
sg4916
VNo default provided.
p4958
sg4918
I00
sg4919
I00
sg4920
V__nodoc__
p4959
sg4922
I00
sg4923
Vrelated
p4960
ssg4895
(dp4961
g4934
Vto_one
p4962
sg4915
I00
sg4916
VNo default provided.
p4963
sg4918
I00
sg4919
I00
sg4920
V__nodoc__
p4964
sg4922
I00
sg4923
Vrelated
p4965
ssg4898
(dp4966
g4915
I00
sg4916
VNo default provided.
p4967
sg4918
I00
sg4919
I00
sg4920
V__nodoc__
p4968
sg4922
I00
sg4923
Vinteger
p4969
sssg131
V/api/hrvhf/
p4970
sVdefault_format
p4971
Vapplication/json
p4972
sVdefault_limit
p4973
I20
sVallowed_list_http_methods
p4974
(lp4975
Vget
p4976
assVdistribution
p4977
(dp4978
Vfiltering
p4979
(dp4980
Vcategory
p4981
(lp4982
Vexact
p4983
aVin
p4984
aVisnull
p4985
asVend
p4986
(lp4987
Vexact
p4988
asVstart
p4989
(lp4990
Vexact
p4991
asVinclude_autodetected
p4992
(lp4993
Vtrue
p4994
asVinclude_metrics
p4995
(lp4996
Vexact
p4997
aVin
p4998
asVactivitytype
p4999
(lp5000
Vexact
p5001
aVin
p5002
aVisnull
p5003
asVtrainingroutine
p5004
(lp5005
Vexact
p5006
aVin
p5007
aVisnull
p5008
asVrecord
p5009
(lp5010
Vexact
p5011
aVin
p5012
asVrange
p5013
(lp5014
Vexact
p5015
aVin
p5016
asVinclude_histograms
p5017
(lp5018
Vexact
p5019
aVin
p5020
asVuser
p5021
(lp5022
Vexact
p5023
aVin
p5024
asVdisplay
p5025
(lp5026
Vexact
p5027
assg70
g4977
sVallowed_detail_http_methods
p5028
(lp5029
sVfields
p5030
(dp5031
g4981
(dp5032
Vrelated_type
p5033
Vto_one
p5034
sVnullable
p5035
I01
sVdefault
p5036
VNo default provided.
p5037
sVreadonly
p5038
I00
sVblank
p5039
I00
sVhelp_text
p5040
Vlist of category used in conjunction with "user", "start" and "end" to filter what data will be analysed
p5041
sVunique
p5042
I00
sVtype
p5043
Vrelated
p5044
ssg4986
(dp5045
g5035
I01
sg5036
VNo default provided.
p5046
sg5038
I00
sg5039
I00
sg5040
VAn integer indicating the number of 256ths of a second that have passed since Jan 1, 1970 UTC, ie. a traditional timestamp, multiplied by 256. The value will be ceil to the next UTC hour.
p5047
sg5042
I00
sg5043
Vinteger
p5048
ssg4989
(dp5049
g5035
I01
sg5036
VNo default provided.
p5050
sg5038
I00
sg5039
I00
sg5040
VAn integer indicating the number of 256ths of a second that have passed since Jan 1, 1970 UTC, ie. a traditional timestamp, multiplied by 256. The value will be floor to the previous UTC hour.
p5051
sg5042
I00
sg5043
Vinteger
p5052
ssg4995
(dp5053
g5033
Vto_many
p5054
sg5035
I00
sg5036
VNo default provided.
p5055
sg5038
I00
sg5039
I00
sg5040
VList of metric IDs that specify the metrics that will be extracted
p5056
sg5042
I00
sg5043
Vrelated
p5057
ssg4999
(dp5058
g5033
Vto_one
p5059
sg5035
I01
sg5036
VNo default provided.
p5060
sg5038
I00
sg5039
I00
sg5040
Vlist of activitytype used in conjunction with "user", "start" and "end" to filter what data will be analysed
p5061
sg5042
I00
sg5043
Vrelated
p5062
ssg5009
(dp5063
g5033
Vto_one
p5064
sg5035
I01
sg5036
VNo default provided.
p5065
sg5038
I00
sg5039
I00
sg5040
Vlist of record on which the metrics are extracted
p5066
sg5042
I00
sg5043
Vrelated
p5067
ssg5013
(dp5068
g5033
Vto_one
p5069
sg5035
I01
sg5036
VNo default provided.
p5070
sg5038
I00
sg5039
I00
sg5040
Vlist of range on which the metrics are extracted
p5071
sg5042
I00
sg5043
Vrelated
p5072
ssg5017
(dp5073
g5033
Vto_many
p5074
sg5035
I00
sg5036
VNo default provided.
p5075
sg5038
I00
sg5039
I00
sg5040
VList of histograms (IDs) that specify the metrics that will be extracted
p5076
sg5042
I00
sg5043
Vrelated
p5077
ssg5021
(dp5078
g5033
Vto_one
p5079
sg5035
I01
sg5036
VNo default provided.
p5080
sg5038
I00
sg5039
I00
sg5040
V__nodoc__
p5081
sg5042
I00
sg5043
Vrelated
p5082
ssg5004
(dp5083
g5033
Vto_one
p5084
sg5035
I01
sg5036
VNo default provided.
p5085
sg5038
I00
sg5039
I00
sg5040
Vlist of trainingroutine used in conjunction with "user", "start" and "end" to filter what data will be analysed
p5086
sg5042
I00
sg5043
Vrelated
p5087
ssVresource_uri
p5088
(dp5089
g5035
I00
sg5036
VNo default provided.
p5090
sg5038
I01
sg5039
I00
sg5040
VThe unique URI where the object resides.
p5091
sg5042
I00
sg5043
Vstring
p5092
sssg131
V/api/distribution/
p5093
sVdefault_format
p5094
Vapplication/json
p5095
sVdefault_limit
p5096
I20
sVallowed_list_http_methods
p5097
(lp5098
Vget
p5099
assVuser
p5100
(dp5101
Vfiltering
p5102
(dp5103
Vusername
p5104
(lp5105
Vexact
p5106
aVin
p5107
aVstartswith
p5108
asVsearch
p5109
(lp5110
Vexact
p5111
asVemail
p5112
(lp5113
Vexact
p5114
aVin
p5115
aVstartswith
p5116
asVid
p5117
(lp5118
Vexact
p5119
aVin
p5120
aVgt
p5121
aVgte
p5122
aVlt
p5123
aVlte
p5124
aVrange
p5125
assg70
g5100
sVallowed_detail_http_methods
p5126
(lp5127
Vget
p5128
aVput
p5129
aVpatch
p5130
asVordering
p5131
(lp5132
Vid
p5133
aVusername
p5134
aVemail
p5135
asVfields
p5136
(dp5137
Vprofile
p5138
(dp5139
Vrelated_type
p5140
Vto_one
p5141
sVnullable
p5142
I01
sVdefault
p5143
VNo default provided.
p5144
sVreadonly
p5145
I01
sVblank
p5146
I01
sVhelp_text
p5147
VA reference to [:r:profile].  Maybe specified by URI or ID.  Using a URI is recommended.
p5148
sVunique
p5149
I00
sVtype
p5150
Vrelated
p5151
ssg5104
(dp5152
g5142
I00
sg5143
VNo default provided.
p5153
sg5145
I01
sg5146
I01
sg5147
VSet to be the same as email. Left in place for historical reasons.
p5154
sg5149
I01
sg5150
Vstring
p5155
ssVfirst_name
p5156
(dp5157
g5142
I00
sg5143
V
sg5145
I00
sg5146
I01
sg5147
VUnicode string data. Ex: "Hello World"
p5158
sg5149
I00
sg5150
Vstring
p5159
ssVlast_name
p5160
(dp5161
g5142
I00
sg5143
V
sg5145
I00
sg5146
I01
sg5147
VUnicode string data. Ex: "Hello World"
p5162
sg5149
I00
sg5150
Vstring
p5163
ssg5117
(dp5164
g5142
I00
sg5143
VNo default provided.
p5165
sg5145
I01
sg5146
I00
sg5147
VThe primary key for this resource. Integer data. Ex: 2673
p5166
sg5149
I01
sg5150
Vinteger
p5167
ssg5112
(dp5168
g5142
I00
sg5143
VNo default provided.
p5169
sg5145
I01
sg5146
I01
sg5147
VCannot change without an email confirmation loop
p5170
sg5149
I01
sg5150
Vstring
p5171
ssVresource_uri
p5172
(dp5173
g5142
I00
sg5143
VNo default provided.
p5174
sg5145
I01
sg5146
I00
sg5147
VThe unique URI where the object resides.
p5175
sg5149
I00
sg5150
Vstring
p5176
sssg131
V/api/user/
p5177
sVdefault_format
p5178
Vapplication/json
p5179
sVdefault_limit
p5180
I20
sVallowed_list_http_methods
p5181
(lp5182
Vget
p5183
assVasync
p5184
(dp5185
Vfiltering
p5186
(dp5187
Vdatatype
p5188
(lp5189
Vexact
p5190
aVin
p5191
aVne
p5192
asVstart
p5193
(lp5194
Vexact
p5195
aVgt
p5196
aVgte
p5197
aVlt
p5198
aVlte
p5199
aVrange
p5200
asVlast_modified
p5201
(lp5202
Vexact
p5203
aVgt
p5204
aVgte
p5205
aVlt
p5206
aVlte
p5207
aVrange
p5208
asVid
p5209
(lp5210
Vexact
p5211
aVin
p5212
aVgt
p5213
aVgte
p5214
aVlt
p5215
aVlte
p5216
aVrange
p5217
asVuser
p5218
(lp5219
Vexact
p5220
aVin
p5221
aVgt
p5222
aVgte
p5223
aVlt
p5224
aVlte
p5225
aVrange
p5226
assg70
g5184
sVallowed_detail_http_methods
p5227
(lp5228
Vget
p5229
aVdelete
p5230
asVordering
p5231
(lp5232
Vstart
p5233
aVid
p5234
aVlast_modified
p5235
aVuser
p5236
aVdatatype
p5237
asVfields
p5238
(dp5239
g5188
(dp5240
Vrelated_type
p5241
Vto_one
p5242
sVnullable
p5243
I00
sVdefault
p5244
VNo default provided.
p5245
sVreadonly
p5246
I00
sVblank
p5247
I00
sVhelp_text
p5248
VA reference to [:r:datatype].  Maybe specified by URI or ID.  Using a URI is recommended.
p5249
sVunique
p5250
I00
sVtype
p5251
Vrelated
p5252
ssg5193
(dp5253
g5243
I00
sg5244
VNo default provided.
p5254
sg5246
I00
sg5247
I00
sg5248
VStart timestamp.
p5255
sg5250
I00
sg5251
Vinteger
p5256
ssg5201
(dp5257
g5243
I00
sg5244
I01
sg5246
I00
sg5247
I01
sg5248
VA date & time as a string. Ex: "2010-11-10T03:07:43"
p5258
sg5250
I00
sg5251
Vdatetime
p5259
ssg5218
(dp5260
g5241
Vto_one
p5261
sg5243
I00
sg5244
VNo default provided.
p5262
sg5246
I00
sg5247
I00
sg5248
VA [:r:user].  Maybe specified by URI, email, or ID.  Using a URI is recommended.
p5263
sg5250
I00
sg5251
Vrelated
p5264
ssVdata
p5265
(dp5266
g5243
I00
sg5244
VNo default provided.
p5267
sg5246
I00
sg5247
I00
sg5248
VFloat value
p5268
sg5250
I00
sg5251
Vfloat
p5269
ssg5209
(dp5270
g5243
I00
sg5244
V
sg5246
I00
sg5247
I01
sg5248
VThe primary key for this resource. Integer data. Ex: 2673
p5271
sg5250
I01
sg5251
Vinteger
p5272
ssVresource_uri
p5273
(dp5274
g5243
I00
sg5244
VNo default provided.
p5275
sg5246
I01
sg5247
I00
sg5248
VThe unique URI where the object resides.
p5276
sg5250
I00
sg5251
Vstring
p5277
sssg131
V/api/async/
p5278
sVdefault_format
p5279
Vapplication/json
p5280
sVdefault_limit
p5281
I20
sVallowed_list_http_methods
p5282
(lp5283
Vget
p5284
assVreport
p5285
(dp5286
Vfiltering
p5287
(dp5288
Vcategory
p5289
(lp5290
Vexact
p5291
aVin
p5292
asVend
p5293
(lp5294
Vexact
p5295
asVrecord
p5296
(lp5297
Vexact
p5298
aVin
p5299
asVinclude_autodetected
p5300
(lp5301
Vtrue
p5302
asVinclude_metrics
p5303
(lp5304
Vexact
p5305
aVin
p5306
asVactivitytype
p5307
(lp5308
Vexact
p5309
aVin
p5310
aVisnull
p5311
asVstart
p5312
(lp5313
Vexact
p5314
asVtrainingroutine
p5315
(lp5316
Vexact
p5317
aVin
p5318
aVisnull
p5319
asVgrouped
p5320
(lp5321
Vexact
p5322
asVrange
p5323
(lp5324
Vexact
p5325
aVin
p5326
asVgroup_by
p5327
(lp5328
Vexact
p5329
aVday
p5330
asVuser
p5331
(lp5332
Vexact
p5333
aVin
p5334
asVtime
p5335
(lp5336
Vexact
p5337
aVday
p5338
asVdisplay
p5339
(lp5340
Vexact
p5341
assg70
g5285
sVallowed_detail_http_methods
p5342
(lp5343
sVfields
p5344
(dp5345
g5289
(dp5346
Vrelated_type
p5347
Vto_one
p5348
sVnullable
p5349
I01
sVdefault
p5350
VNo default provided.
p5351
sVreadonly
p5352
I00
sVblank
p5353
I00
sVhelp_text
p5354
Vlist of category used in conjunction with "user", "start" and "end" to filter what data will be analysed
p5355
sVunique
p5356
I00
sVtype
p5357
Vrelated
p5358
ssg5293
(dp5359
g5349
I01
sg5350
VNo default provided.
p5360
sg5352
I00
sg5353
I00
sg5354
VAn integer indicating the number of 256ths of a second that have passed since Jan 1, 1970 UTC, ie. a traditional timestamp, multiplied by 256. The value will be ceil to the next UTC hour.
p5361
sg5356
I00
sg5357
Vinteger
p5362
ssg5312
(dp5363
g5349
I01
sg5350
VNo default provided.
p5364
sg5352
I00
sg5353
I00
sg5354
VAn integer indicating the number of 256ths of a second that have passed since Jan 1, 1970 UTC, ie. a traditional timestamp, multiplied by 256. The value will be floor to the previous UTC hour.
p5365
sg5356
I00
sg5357
Vinteger
p5366
ssg5303
(dp5367
g5347
Vto_many
p5368
sg5349
I00
sg5350
VNo default provided.
p5369
sg5352
I00
sg5353
I00
sg5354
VList of metric IDs that specify the metrics that will be extracted
p5370
sg5356
I00
sg5357
Vrelated
p5371
ssg5307
(dp5372
g5347
Vto_one
p5373
sg5349
I01
sg5350
VNo default provided.
p5374
sg5352
I00
sg5353
I00
sg5354
Vlist of activitytype used in conjunction with "user", "start" and "end" to filter what data will be analysed
p5375
sg5356
I00
sg5357
Vrelated
p5376
ssg5296
(dp5377
g5347
Vto_one
p5378
sg5349
I01
sg5350
VNo default provided.
p5379
sg5352
I00
sg5353
I00
sg5354
Vlist of record on which the metrics are extracted
p5380
sg5356
I00
sg5357
Vrelated
p5381
ssg5323
(dp5382
g5347
Vto_one
p5383
sg5349
I01
sg5350
VNo default provided.
p5384
sg5352
I00
sg5353
I00
sg5354
Vlist of range on which the metrics are extracted
p5385
sg5356
I00
sg5357
Vrelated
p5386
ssg5331
(dp5387
g5347
Vto_one
p5388
sg5349
I01
sg5350
VNo default provided.
p5389
sg5352
I00
sg5353
I00
sg5354
V__nodoc__
p5390
sg5356
I00
sg5357
Vrelated
p5391
ssg5315
(dp5392
g5347
Vto_one
p5393
sg5349
I01
sg5350
VNo default provided.
p5394
sg5352
I00
sg5353
I00
sg5354
Vlist of trainingroutine used in conjunction with "user", "start" and "end" to filter what data will be analysed
p5395
sg5356
I00
sg5357
Vrelated
p5396
ssVresource_uri
p5397
(dp5398
g5349
I00
sg5350
VNo default provided.
p5399
sg5352
I01
sg5353
I00
sg5354
VThe unique URI where the object resides.
p5400
sg5356
I00
sg5357
Vstring
p5401
sssg131
V/api/report/
p5402
sVdefault_format
p5403
Vapplication/json
p5404
sVdefault_limit
p5405
I20
sVallowed_list_http_methods
p5406
(lp5407
Vget
p5408
assVtrainingsession
p5409
(dp5410
Vfiltering
p5411
(dp5412
Vend
p5413
(lp5414
Vexact
p5415
aVrange
p5416
aVgt
p5417
aVgte
p5418
aVlt
p5419
aVlte
p5420
asVusers
p5421
(lp5422
Vexact
p5423
aVin
p5424
aVgt
p5425
aVgte
p5426
aVlt
p5427
aVlte
p5428
aVrange
p5429
asVlabels
p5430
(lp5431
Vexact
p5432
aVin
p5433
asVteams
p5434
(lp5435
Vexact
p5436
aVin
p5437
aVgt
p5438
aVgte
p5439
aVlt
p5440
aVlte
p5441
aVrange
p5442
asVtrainingroutine
p5443
(lp5444
Vexact
p5445
aVin
p5446
aVgt
p5447
aVgte
p5448
aVlt
p5449
aVlte
p5450
aVrange
p5451
asVstart
p5452
(lp5453
Vexact
p5454
aVrange
p5455
aVgt
p5456
aVgte
p5457
aVlt
p5458
aVlte
p5459
asVrange
p5460
I2
sVuser
p5461
(lp5462
Vexact
p5463
aVin
p5464
aVgt
p5465
aVgte
p5466
aVlt
p5467
aVlte
p5468
aVrange
p5469
asVid
p5470
(lp5471
Vexact
p5472
aVin
p5473
aVgt
p5474
aVgte
p5475
aVlt
p5476
aVlte
p5477
aVrange
p5478
assg70
g5409
sVallowed_detail_http_methods
p5479
(lp5480
Vget
p5481
aVput
p5482
aVdelete
p5483
aVpatch
p5484
asVordering
p5485
(lp5486
Vid
p5487
aVrange
p5488
aVstart
p5489
aVend
p5490
aVuser
p5491
aVtrainingroutine
p5492
asVfields
p5493
(dp5494
Vstatus
p5495
(dp5496
Vnullable
p5497
I00
sVdefault
p5498
VNo default provided.
p5499
sVreadonly
p5500
I00
sVblank
p5501
I00
sVhelp_text
p5502
VThe status as derived from the Records available in this TrainingSession. Only one change is possible with this attribute: from realtime to realtime_complete.
p5503
sVunique
p5504
I00
sVtype
p5505
Vstring
p5506
ssg5413
(dp5507
g5497
I00
sg5498
VNo default provided.
p5508
sg5500
I00
sg5501
I00
sg5502
VInteger data. Ex: 2673
p5509
sg5504
I00
sg5505
Vinteger
p5510
ssVname
p5511
(dp5512
g5497
I00
sg5498
V
sg5500
I00
sg5501
I01
sg5502
VUnicode string data. Ex: "Hello World"
p5513
sg5504
I00
sg5505
Vstring
p5514
ssVcreated
p5515
(dp5516
g5497
I01
sg5498
VNo default provided.
p5517
sg5500
I01
sg5501
I01
sg5502
VCreated automatically
p5518
sg5504
I00
sg5505
Vdatetime
p5519
ssg5430
(dp5520
Vrelated_type
p5521
Vto_many
p5522
sg5497
I01
sg5498
VNo default provided.
p5523
sg5500
I01
sg5501
I01
sg5502
VMany related resources. Can be either a list of URIs or list of individually nested resource data.
p5524
sg5504
I00
sg5505
Vrelated
p5525
ssg5443
(dp5526
g5521
Vto_one
p5527
sg5497
I01
sg5498
VNo default provided.
p5528
sg5500
I00
sg5501
I01
sg5502
VA reference to [:r:trainingroutine].  Maybe specified by URI or ID.  Using a URI is recommended.
p5529
sg5504
I00
sg5505
Vrelated
p5530
ssVstart_date
p5531
(dp5532
g5497
I00
sg5498
VNo default provided.
p5533
sg5500
I01
sg5501
I00
sg5502
VA date & time as a string. Ex: "2010-11-10T03:07:43"
p5534
sg5504
I00
sg5505
Vdatetime
p5535
ssVnote
p5536
(dp5537
g5497
I00
sg5498
V
sg5500
I00
sg5501
I01
sg5502
VUnicode string data. Ex: "Hello World"
p5538
sg5504
I00
sg5505
Vstring
p5539
ssg5452
(dp5540
g5497
I00
sg5498
VNo default provided.
p5541
sg5500
I00
sg5501
I00
sg5502
VInteger data. Ex: 2673
p5542
sg5504
I00
sg5505
Vinteger
p5543
ssg5460
(dp5544
g5521
Vto_one
p5545
sg5497
I00
sg5498
VNo default provided.
p5546
sg5500
I00
sg5501
I00
sg5502
V__nodoc__
p5547
sg5504
I00
sg5505
Vrelated
p5548
ssg5461
(dp5549
g5521
Vto_one
p5550
sg5497
I00
sg5498
VNo default provided.
p5551
sg5500
I00
sg5501
I00
sg5502
VA [:r:user].  Maybe specified by URI, email, or ID.  Using a URI is recommended.
p5552
sg5504
I00
sg5505
Vrelated
p5553
ssg5421
(dp5554
g5521
Vto_many
p5555
sg5497
I00
sg5498
VNo default provided.
p5556
sg5500
I00
sg5501
I00
sg5502
VMany related resources. Can be either a list of URIs or list of individually nested resource data.
p5557
sg5504
I00
sg5505
Vrelated
p5558
ssg5434
(dp5559
g5521
Vto_many
p5560
sg5497
I01
sg5498
VNo default provided.
p5561
sg5500
I00
sg5501
I00
sg5502
VMany related resources. Can be either a list of URIs or list of individually nested resource data.
p5562
sg5504
I00
sg5505
Vrelated
p5563
ssg5470
(dp5564
g5497
I00
sg5498
VNo default provided.
p5565
sg5500
I01
sg5501
I00
sg5502
VThe primary key for this resource. Integer data. Ex: 2673
p5566
sg5504
I01
sg5505
Vinteger
p5567
ssVresource_uri
p5568
(dp5569
g5497
I00
sg5498
VNo default provided.
p5570
sg5500
I01
sg5501
I00
sg5502
VThe unique URI where the object resides.
p5571
sg5504
I00
sg5505
Vstring
p5572
sssg131
V/api/trainingsession/
p5573
sVdefault_format
p5574
Vapplication/json
p5575
sVdefault_limit
p5576
I20
sVallowed_list_http_methods
p5577
(lp5578
Vget
p5579
aVpost
p5580
aVpatch
p5581
assVaccount
p5582
(dp5583
g70
g5582
sVallowed_detail_http_methods
p5584
(lp5585
sVordering
p5586
(lp5587
Vid
p5588
aVusername
p5589
aVemail
p5590
asVfields
p5591
(dp5592
Vprofile
p5593
(dp5594
Vrelated_type
p5595
Vto_one
p5596
sVnullable
p5597
I01
sVdefault
p5598
VNo default provided.
p5599
sVreadonly
p5600
I01
sVblank
p5601
I01
sVhelp_text
p5602
VA reference to [:r:profile].  Maybe specified by URI or ID.  Using a URI is recommended.
p5603
sVunique
p5604
I00
sVtype
p5605
Vrelated
p5606
ssVusername
p5607
(dp5608
g5597
I00
sg5598
VNo default provided.
p5609
sg5600
I01
sg5601
I01
sg5602
VSet to be the same as email. Left in place for historical reasons.
p5610
sg5604
I01
sg5605
Vstring
p5611
ssVfirst_name
p5612
(dp5613
g5597
I00
sg5598
V
sg5600
I00
sg5601
I01
sg5602
VUnicode string data. Ex: "Hello World"
p5614
sg5604
I00
sg5605
Vstring
p5615
ssVlast_name
p5616
(dp5617
g5597
I00
sg5598
V
sg5600
I00
sg5601
I01
sg5602
VUnicode string data. Ex: "Hello World"
p5618
sg5604
I00
sg5605
Vstring
p5619
ssVid
p5620
(dp5621
g5597
I00
sg5598
VNo default provided.
p5622
sg5600
I01
sg5601
I00
sg5602
VThe primary key for this resource. The primary key for this resource. Integer data. Ex: 2673
p5623
sg5604
I01
sg5605
Vinteger
p5624
ssVis_staff
p5625
(dp5626
g5597
I00
sg5598
VNo default provided.
p5627
sg5600
I00
sg5601
I00
sg5602
VDesignates whether the user can log into this admin site.
p5628
sg5604
I00
sg5605
Vboolean
p5629
ssVemail
p5630
(dp5631
g5597
I00
sg5598
VNo default provided.
p5632
sg5600
I01
sg5601
I01
sg5602
VCannot change without an email confirmation loop
p5633
sg5604
I01
sg5605
Vstring
p5634
ssVresource_uri
p5635
(dp5636
g5597
I00
sg5598
VNo default provided.
p5637
sg5600
I01
sg5601
I00
sg5602
VThe unique URI where the object resides.
p5638
sg5604
I00
sg5605
Vstring
p5639
sssg131
V/api/account/
p5640
sVdefault_format
p5641
Vapplication/json
p5642
sVdefault_limit
p5643
I20
sVallowed_list_http_methods
p5644
(lp5645
Vget
p5646
assVdata
p5647
(dp5648
Vfiltering
p5649
(dp5650
Vflat
p5651
(lp5652
Vexact
p5653
asVend
p5654
(lp5655
Vexact
p5656
asVstart
p5657
(lp5658
Vexact
p5659
asVdatatype
p5660
(lp5661
Vexact
p5662
aVin
p5663
aVgt
p5664
aVgte
p5665
aVlt
p5666
aVlte
p5667
aVrange
p5668
asVtimestamp
p5669
(lp5670
Vrange
p5671
aVgt
p5672
aVgte
p5673
aVlt
p5674
aVlte
p5675
asVseconds
p5676
(lp5677
Vexact
p5678
asVno_timestamps
p5679
(lp5680
Vexact
p5681
asVrecord
p5682
(lp5683
Vexact
p5684
aVin
p5685
aVgt
p5686
aVgte
p5687
aVlt
p5688
aVlte
p5689
aVrange
p5690
asVrange
p5691
(lp5692
Vexact
p5693
aVin
p5694
aVgt
p5695
aVgte
p5696
aVlt
p5697
aVlte
p5698
aVrange
p5699
asVuser
p5700
(lp5701
Vexact
p5702
asVmax_values
p5703
(lp5704
Vexact
p5705
asVid
p5706
(lp5707
Vexact
p5708
aVin
p5709
aVgt
p5710
aVgte
p5711
aVlt
p5712
aVlte
p5713
aVrange
p5714
assg70
g5647
sVallowed_detail_http_methods
p5715
(lp5716
sVfields
p5717
(dp5718
g5651
(dp5719
Vnullable
p5720
I00
sVdefault
p5721
VNo default provided.
p5722
sVreadonly
p5723
I00
sVblank
p5724
I00
sVhelp_text
p5725
V__nodoc__
p5726
sVunique
p5727
I00
sVtype
p5728
Vinteger
p5729
ssg5654
(dp5730
g5720
I00
sg5721
VNo default provided.
p5731
sg5723
I00
sg5724
I00
sg5725
V__nodoc__
p5732
sg5727
I00
sg5728
Vinteger
p5733
ssg5657
(dp5734
g5720
I00
sg5721
VNo default provided.
p5735
sg5723
I00
sg5724
I00
sg5725
V__nodoc__
p5736
sg5727
I00
sg5728
Vinteger
p5737
ssg5660
(dp5738
Vrelated_type
p5739
Vto_one
p5740
sg5720
I00
sg5721
VNo default provided.
p5741
sg5723
I00
sg5724
I01
sg5725
V__nodoc__
p5742
sg5727
I00
sg5728
Vrelated
p5743
ssg5669
(dp5744
g5720
I00
sg5721
VNo default provided.
p5745
sg5723
I00
sg5724
I00
sg5725
V__nodoc__
p5746
sg5727
I00
sg5728
Vinteger
p5747
ssg5676
(dp5748
g5720
I00
sg5721
VNo default provided.
p5749
sg5723
I00
sg5724
I00
sg5725
V__nodoc__
p5750
sg5727
I00
sg5728
Vinteger
p5751
ssg5679
(dp5752
g5720
I00
sg5721
VNo default provided.
p5753
sg5723
I00
sg5724
I00
sg5725
V__nodoc__
p5754
sg5727
I00
sg5728
Vinteger
p5755
ssg5682
(dp5756
g5739
Vto_one
p5757
sg5720
I01
sg5721
VNo default provided.
p5758
sg5723
I00
sg5724
I01
sg5725
V__nodoc__
p5759
sg5727
I00
sg5728
Vrelated
p5760
ssg5691
(dp5761
g5739
Vto_one
p5762
sg5720
I00
sg5721
VNo default provided.
p5763
sg5723
I00
sg5724
I00
sg5725
V__nodoc__
p5764
sg5727
I00
sg5728
Vrelated
p5765
ssg5700
(dp5766
g5739
Vto_one
p5767
sg5720
I00
sg5721
VNo default provided.
p5768
sg5723
I00
sg5724
I00
sg5725
V__nodoc__
p5769
sg5727
I00
sg5728
Vrelated
p5770
ssg5703
(dp5771
g5720
I00
sg5721
VNo default provided.
p5772
sg5723
I00
sg5724
I00
sg5725
V__nodoc__
p5773
sg5727
I00
sg5728
Vinteger
p5774
sssg131
V/api/data/
p5775
sVdefault_format
p5776
Vapplication/json
p5777
sVdefault_limit
p5778
I20
sVallowed_list_http_methods
p5779
(lp5780
Vget
p5781
assVannotation
p5782
(dp5783
Vfiltering
p5784
(dp5785
Vstart
p5786
(lp5787
Vexact
p5788
aVin
p5789
aVgt
p5790
aVgte
p5791
aVlt
p5792
aVlte
p5793
aVrange
p5794
asVdatatype
p5795
(lp5796
Vexact
p5797
aVin
p5798
aVgt
p5799
aVgte
p5800
aVlt
p5801
aVlte
p5802
aVrange
p5803
asVrecord
p5804
(lp5805
Vexact
p5806
aVin
p5807
aVgt
p5808
aVgte
p5809
aVlt
p5810
aVlte
p5811
aVrange
p5812
asVlast_modified
p5813
(lp5814
Vexact
p5815
aVin
p5816
aVgt
p5817
aVgte
p5818
aVlt
p5819
aVlte
p5820
aVrange
p5821
asVuser
p5822
(lp5823
Vexact
p5824
aVin
p5825
aVgt
p5826
aVgte
p5827
aVlt
p5828
aVlte
p5829
aVrange
p5830
asVid
p5831
(lp5832
Vexact
p5833
aVin
p5834
aVgt
p5835
aVgte
p5836
aVlt
p5837
aVlte
p5838
aVrange
p5839
assg70
g5782
sVallowed_detail_http_methods
p5840
(lp5841
Vget
p5842
aVput
p5843
aVpatch
p5844
aVdelete
p5845
asVordering
p5846
(lp5847
Vid
p5848
aVuser
p5849
aVrecord
p5850
aVdatatype
p5851
aVstart
p5852
aVlast_modified
p5853
asVfields
p5854
(dp5855
g5786
(dp5856
Vnullable
p5857
I00
sVdefault
p5858
VNo default provided.
p5859
sVreadonly
p5860
I00
sVblank
p5861
I00
sVhelp_text
p5862
VStart timestamp.
p5863
sVunique
p5864
I00
sVtype
p5865
Vinteger
p5866
ssg5795
(dp5867
Vrelated_type
p5868
Vto_one
p5869
sg5857
I00
sg5858
VNo default provided.
p5870
sg5860
I00
sg5861
I01
sg5862
VA reference to [:r:datatype].  Maybe specified by URI or ID.  Using a URI is recommended.
p5871
sg5864
I00
sg5865
Vrelated
p5872
ssg5822
(dp5873
g5868
Vto_one
p5874
sg5857
I00
sg5858
VNo default provided.
p5875
sg5860
I00
sg5861
I00
sg5862
VA [:r:user].  Maybe specified by URI, email, or ID.  Using a URI is recommended.
p5876
sg5864
I00
sg5865
Vrelated
p5877
ssg5831
(dp5878
g5857
I00
sg5858
V
sg5860
I00
sg5861
I01
sg5862
VThe primary key for this resource. Integer data. Ex: 2673
p5879
sg5864
I01
sg5865
Vinteger
p5880
ssg5804
(dp5881
g5868
Vto_one
p5882
sg5857
I01
sg5858
VNo default provided.
p5883
sg5860
I00
sg5861
I01
sg5862
VA reference to [:r:record].  Maybe specified by URI or ID.  Using a URI is recommended.
p5884
sg5864
I00
sg5865
Vrelated
p5885
ssg5813
(dp5886
g5857
I00
sg5858
I01
sg5860
I00
sg5861
I01
sg5862
VA date & time as a string. Ex: "2010-11-10T03:07:43"
p5887
sg5864
I00
sg5865
Vdatetime
p5888
ssVstart_date
p5889
(dp5890
g5857
I00
sg5858
VNo default provided.
p5891
sg5860
I01
sg5861
I00
sg5862
VA date & time as a string. Ex: "2010-11-10T03:07:43"
p5892
sg5864
I00
sg5865
Vdatetime
p5893
ssVannotation
p5894
(dp5895
g5857
I00
sg5858
V
sg5860
I00
sg5861
I00
sg5862
VUnicode string data. Ex: "Hello World"
p5896
sg5864
I00
sg5865
Vstring
p5897
ssVresource_uri
p5898
(dp5899
g5857
I00
sg5858
VNo default provided.
p5900
sg5860
I01
sg5861
I00
sg5862
VThe unique URI where the object resides.
p5901
sg5864
I00
sg5865
Vstring
p5902
sssg131
V/api/annotation/
p5903
sVdefault_format
p5904
Vapplication/json
p5905
sVdefault_limit
p5906
I20
sVallowed_list_http_methods
p5907
(lp5908
Vget
p5909
aVpost
p5910
aVpatch
p5911
assVinspiration
p5912
(dp5913
Vfiltering
p5914
(dp5915
Vflat
p5916
(lp5917
Vexact
p5918
asVend
p5919
(lp5920
Vexact
p5921
asVstart
p5922
(lp5923
Vexact
p5924
asVdatatype
p5925
(lp5926
Vexact
p5927
aVin
p5928
aVgt
p5929
aVgte
p5930
aVlt
p5931
aVlte
p5932
aVrange
p5933
asVtimestamp
p5934
(lp5935
Vrange
p5936
aVgt
p5937
aVgte
p5938
aVlt
p5939
aVlte
p5940
asVseconds
p5941
(lp5942
Vexact
p5943
asVno_timestamps
p5944
(lp5945
Vexact
p5946
asVrecord
p5947
(lp5948
Vexact
p5949
aVin
p5950
aVgt
p5951
aVgte
p5952
aVlt
p5953
aVlte
p5954
aVrange
p5955
asVrange
p5956
(lp5957
Vexact
p5958
aVin
p5959
aVgt
p5960
aVgte
p5961
aVlt
p5962
aVlte
p5963
aVrange
p5964
asVuser
p5965
(lp5966
Vexact
p5967
asVmax_values
p5968
(lp5969
Vexact
p5970
asVid
p5971
(lp5972
Vexact
p5973
aVin
p5974
aVgt
p5975
aVgte
p5976
aVlt
p5977
aVlte
p5978
aVrange
p5979
assg70
g5912
sVallowed_detail_http_methods
p5980
(lp5981
sVfields
p5982
(dp5983
g5916
(dp5984
Vnullable
p5985
I00
sVdefault
p5986
VNo default provided.
p5987
sVreadonly
p5988
I00
sVblank
p5989
I00
sVhelp_text
p5990
V__nodoc__
p5991
sVunique
p5992
I00
sVtype
p5993
Vinteger
p5994
ssg5919
(dp5995
g5985
I00
sg5986
VNo default provided.
p5996
sg5988
I00
sg5989
I00
sg5990
V__nodoc__
p5997
sg5992
I00
sg5993
Vinteger
p5998
ssg5922
(dp5999
g5985
I00
sg5986
VNo default provided.
p6000
sg5988
I00
sg5989
I00
sg5990
V__nodoc__
p6001
sg5992
I00
sg5993
Vinteger
p6002
ssg5925
(dp6003
Vrelated_type
p6004
Vto_one
p6005
sg5985
I00
sg5986
VNo default provided.
p6006
sg5988
I00
sg5989
I01
sg5990
V__nodoc__
p6007
sg5992
I00
sg5993
Vrelated
p6008
ssg5934
(dp6009
g5985
I00
sg5986
VNo default provided.
p6010
sg5988
I00
sg5989
I00
sg5990
V__nodoc__
p6011
sg5992
I00
sg5993
Vinteger
p6012
ssg5941
(dp6013
g5985
I00
sg5986
VNo default provided.
p6014
sg5988
I00
sg5989
I00
sg5990
V__nodoc__
p6015
sg5992
I00
sg5993
Vinteger
p6016
ssg5944
(dp6017
g5985
I00
sg5986
VNo default provided.
p6018
sg5988
I00
sg5989
I00
sg5990
V__nodoc__
p6019
sg5992
I00
sg5993
Vinteger
p6020
ssg5947
(dp6021
g6004
Vto_one
p6022
sg5985
I01
sg5986
VNo default provided.
p6023
sg5988
I00
sg5989
I01
sg5990
V__nodoc__
p6024
sg5992
I00
sg5993
Vrelated
p6025
ssg5956
(dp6026
g6004
Vto_one
p6027
sg5985
I00
sg5986
VNo default provided.
p6028
sg5988
I00
sg5989
I00
sg5990
V__nodoc__
p6029
sg5992
I00
sg5993
Vrelated
p6030
ssg5965
(dp6031
g6004
Vto_one
p6032
sg5985
I00
sg5986
VNo default provided.
p6033
sg5988
I00
sg5989
I00
sg5990
V__nodoc__
p6034
sg5992
I00
sg5993
Vrelated
p6035
ssg5968
(dp6036
g5985
I00
sg5986
VNo default provided.
p6037
sg5988
I00
sg5989
I00
sg5990
V__nodoc__
p6038
sg5992
I00
sg5993
Vinteger
p6039
sssg131
V/api/inspiration/
p6040
sVdefault_format
p6041
Vapplication/json
p6042
sVdefault_limit
p6043
I20
sVallowed_list_http_methods
p6044
(lp6045
Vget
p6046
assVacc
p6047
(dp6048
Vfiltering
p6049
(dp6050
Vflat
p6051
(lp6052
Vexact
p6053
asVend
p6054
(lp6055
Vexact
p6056
asVstart
p6057
(lp6058
Vexact
p6059
asVdatatype
p6060
(lp6061
Vexact
p6062
aVin
p6063
aVgt
p6064
aVgte
p6065
aVlt
p6066
aVlte
p6067
aVrange
p6068
asVtimestamp
p6069
(lp6070
Vrange
p6071
aVgt
p6072
aVgte
p6073
aVlt
p6074
aVlte
p6075
asVseconds
p6076
(lp6077
Vexact
p6078
asVno_timestamps
p6079
(lp6080
Vexact
p6081
asVrecord
p6082
(lp6083
Vexact
p6084
aVin
p6085
aVgt
p6086
aVgte
p6087
aVlt
p6088
aVlte
p6089
aVrange
p6090
asVrange
p6091
(lp6092
Vexact
p6093
aVin
p6094
aVgt
p6095
aVgte
p6096
aVlt
p6097
aVlte
p6098
aVrange
p6099
asVuser
p6100
(lp6101
Vexact
p6102
asVmax_values
p6103
(lp6104
Vexact
p6105
asVid
p6106
(lp6107
Vexact
p6108
aVin
p6109
aVgt
p6110
aVgte
p6111
aVlt
p6112
aVlte
p6113
aVrange
p6114
assg70
g6047
sVallowed_detail_http_methods
p6115
(lp6116
sVfields
p6117
(dp6118
g6051
(dp6119
Vnullable
p6120
I00
sVdefault
p6121
VNo default provided.
p6122
sVreadonly
p6123
I00
sVblank
p6124
I00
sVhelp_text
p6125
V__nodoc__
p6126
sVunique
p6127
I00
sVtype
p6128
Vinteger
p6129
ssg6054
(dp6130
g6120
I00
sg6121
VNo default provided.
p6131
sg6123
I00
sg6124
I00
sg6125
V__nodoc__
p6132
sg6127
I00
sg6128
Vinteger
p6133
ssg6057
(dp6134
g6120
I00
sg6121
VNo default provided.
p6135
sg6123
I00
sg6124
I00
sg6125
V__nodoc__
p6136
sg6127
I00
sg6128
Vinteger
p6137
ssg6060
(dp6138
Vrelated_type
p6139
Vto_one
p6140
sg6120
I00
sg6121
VNo default provided.
p6141
sg6123
I00
sg6124
I01
sg6125
V__nodoc__
p6142
sg6127
I00
sg6128
Vrelated
p6143
ssg6069
(dp6144
g6120
I00
sg6121
VNo default provided.
p6145
sg6123
I00
sg6124
I00
sg6125
V__nodoc__
p6146
sg6127
I00
sg6128
Vinteger
p6147
ssg6076
(dp6148
g6120
I00
sg6121
VNo default provided.
p6149
sg6123
I00
sg6124
I00
sg6125
V__nodoc__
p6150
sg6127
I00
sg6128
Vinteger
p6151
ssg6079
(dp6152
g6120
I00
sg6121
VNo default provided.
p6153
sg6123
I00
sg6124
I00
sg6125
V__nodoc__
p6154
sg6127
I00
sg6128
Vinteger
p6155
ssg6082
(dp6156
g6139
Vto_one
p6157
sg6120
I01
sg6121
VNo default provided.
p6158
sg6123
I00
sg6124
I01
sg6125
V__nodoc__
p6159
sg6127
I00
sg6128
Vrelated
p6160
ssg6091
(dp6161
g6139
Vto_one
p6162
sg6120
I00
sg6121
VNo default provided.
p6163
sg6123
I00
sg6124
I00
sg6125
V__nodoc__
p6164
sg6127
I00
sg6128
Vrelated
p6165
ssg6100
(dp6166
g6139
Vto_one
p6167
sg6120
I00
sg6121
VNo default provided.
p6168
sg6123
I00
sg6124
I00
sg6125
V__nodoc__
p6169
sg6127
I00
sg6128
Vrelated
p6170
ssg6103
(dp6171
g6120
I00
sg6121
VNo default provided.
p6172
sg6123
I00
sg6124
I00
sg6125
V__nodoc__
p6173
sg6127
I00
sg6128
Vinteger
p6174
sssg131
V/api/acc/
p6175
sVdefault_format
p6176
Vapplication/json
p6177
sVdefault_limit
p6178
I20
sVallowed_list_http_methods
p6179
(lp6180
Vget
p6181
assVbundle_permission_request
p6182
(dp6183
g70
g6182
sVallowed_detail_http_methods
p6184
(lp6185
Vget
p6186
aVput
p6187
aVdelete
p6188
asVfields
p6189
(dp6190
Vuser_target
p6191
(dp6192
Vrelated_type
p6193
Vto_one
p6194
sVnullable
p6195
I00
sVdefault
p6196
VNo default provided.
p6197
sVreadonly
p6198
I00
sVblank
p6199
I00
sVhelp_text
p6200
VThe primary key for this resource. A [:r:user].  Maybe specified by URI, email, or ID.  Using a URI is recommended.
p6201
sVunique
p6202
I00
sVtype
p6203
Vrelated
p6204
ssVuser_allowed
p6205
(dp6206
g6193
Vto_one
p6207
sg6195
I00
sg6196
VNo default provided.
p6208
sg6198
I00
sg6199
I00
sg6200
VA [:r:user].  Maybe specified by URI, email, or ID.  Using a URI is recommended.
p6209
sg6202
I00
sg6203
Vrelated
p6210
ssVbundle
p6211
(dp6212
g6193
Vto_one
p6213
sg6195
I00
sg6196
VNo default provided.
p6214
sg6198
I00
sg6199
I00
sg6200
VA reference to [:r:bundle].  Maybe specified by URI or ID.  Using a URI is recommended.
p6215
sg6202
I00
sg6203
Vrelated
p6216
ssVredeem_url
p6217
(dp6218
g6195
I01
sg6196
VNo default provided.
p6219
sg6198
I00
sg6199
I01
sg6200
VUnicode string data. Ex: "Hello World"
p6220
sg6202
I00
sg6203
Vstring
p6221
ssVttl
p6222
(dp6223
g6195
I01
sg6196
VNo default provided.
p6224
sg6198
I00
sg6199
I01
sg6200
VInteger data. Ex: 2673
p6225
sg6202
I00
sg6203
Vinteger
p6226
ssVresource_uri
p6227
(dp6228
g6195
I00
sg6196
VNo default provided.
p6229
sg6198
I01
sg6199
I00
sg6200
VThe unique URI where the object resides.
p6230
sg6202
I00
sg6203
Vstring
p6231
sssg131
V/api/bundle_permission_request/
p6232
sVdefault_format
p6233
Vapplication/json
p6234
sVdefault_limit
p6235
I20
sVallowed_list_http_methods
p6236
(lp6237
Vget
p6238
aVpost
p6239
assVdatafile
p6240
(dp6241
Vfiltering
p6242
(dp6243
Vflat
p6244
(lp6245
Vexact
p6246
asVend
p6247
(lp6248
Vexact
p6249
asVstart
p6250
(lp6251
Vexact
p6252
asVdatatype
p6253
(lp6254
Vexact
p6255
aVin
p6256
aVgt
p6257
aVgte
p6258
aVlt
p6259
aVlte
p6260
aVrange
p6261
asVtimestamp
p6262
(lp6263
Vrange
p6264
aVgt
p6265
aVgte
p6266
aVlt
p6267
aVlte
p6268
asVseconds
p6269
(lp6270
Vexact
p6271
asVno_timestamps
p6272
(lp6273
Vexact
p6274
asVrecord
p6275
(lp6276
Vexact
p6277
aVin
p6278
aVgt
p6279
aVgte
p6280
aVlt
p6281
aVlte
p6282
aVrange
p6283
asVrange
p6284
(lp6285
Vexact
p6286
aVin
p6287
aVgt
p6288
aVgte
p6289
aVlt
p6290
aVlte
p6291
aVrange
p6292
asVuser
p6293
(lp6294
Vexact
p6295
asVmax_values
p6296
(lp6297
Vexact
p6298
asVid
p6299
(lp6300
Vexact
p6301
aVin
p6302
aVgt
p6303
aVgte
p6304
aVlt
p6305
aVlte
p6306
aVrange
p6307
assg70
g6240
sVallowed_detail_http_methods
p6308
(lp6309
sVfields
p6310
(dp6311
g6244
(dp6312
Vnullable
p6313
I00
sVdefault
p6314
VNo default provided.
p6315
sVreadonly
p6316
I00
sVblank
p6317
I00
sVhelp_text
p6318
V__nodoc__
p6319
sVunique
p6320
I00
sVtype
p6321
Vinteger
p6322
ssg6247
(dp6323
g6313
I00
sg6314
VNo default provided.
p6324
sg6316
I00
sg6317
I00
sg6318
V__nodoc__
p6325
sg6320
I00
sg6321
Vinteger
p6326
ssg6250
(dp6327
g6313
I00
sg6314
VNo default provided.
p6328
sg6316
I00
sg6317
I00
sg6318
V__nodoc__
p6329
sg6320
I00
sg6321
Vinteger
p6330
ssg6253
(dp6331
Vrelated_type
p6332
Vto_one
p6333
sg6313
I00
sg6314
VNo default provided.
p6334
sg6316
I00
sg6317
I01
sg6318
V__nodoc__
p6335
sg6320
I00
sg6321
Vrelated
p6336
ssg6262
(dp6337
g6313
I00
sg6314
VNo default provided.
p6338
sg6316
I00
sg6317
I00
sg6318
V__nodoc__
p6339
sg6320
I00
sg6321
Vinteger
p6340
ssg6269
(dp6341
g6313
I00
sg6314
VNo default provided.
p6342
sg6316
I00
sg6317
I00
sg6318
V__nodoc__
p6343
sg6320
I00
sg6321
Vinteger
p6344
ssg6272
(dp6345
g6313
I00
sg6314
VNo default provided.
p6346
sg6316
I00
sg6317
I00
sg6318
V__nodoc__
p6347
sg6320
I00
sg6321
Vinteger
p6348
ssg6275
(dp6349
g6332
Vto_one
p6350
sg6313
I01
sg6314
VNo default provided.
p6351
sg6316
I00
sg6317
I01
sg6318
V__nodoc__
p6352
sg6320
I00
sg6321
Vrelated
p6353
ssg6284
(dp6354
g6332
Vto_one
p6355
sg6313
I00
sg6314
VNo default provided.
p6356
sg6316
I00
sg6317
I00
sg6318
V__nodoc__
p6357
sg6320
I00
sg6321
Vrelated
p6358
ssg6293
(dp6359
g6332
Vto_one
p6360
sg6313
I00
sg6314
VNo default provided.
p6361
sg6316
I00
sg6317
I00
sg6318
V__nodoc__
p6362
sg6320
I00
sg6321
Vrelated
p6363
ssg6296
(dp6364
g6313
I00
sg6314
VNo default provided.
p6365
sg6316
I00
sg6317
I00
sg6318
V__nodoc__
p6366
sg6320
I00
sg6321
Vinteger
p6367
sssg131
V/api/datafile/
p6368
sVdefault_format
p6369
Vapplication/json
p6370
sVdefault_limit
p6371
I20
sVallowed_list_http_methods
p6372
(lp6373
Vget
p6374
assVrespiration
p6375
(dp6376
Vfiltering
p6377
(dp6378
Vflat
p6379
(lp6380
Vexact
p6381
asVend
p6382
(lp6383
Vexact
p6384
asVstart
p6385
(lp6386
Vexact
p6387
asVdatatype
p6388
(lp6389
Vexact
p6390
aVin
p6391
aVgt
p6392
aVgte
p6393
aVlt
p6394
aVlte
p6395
aVrange
p6396
asVtimestamp
p6397
(lp6398
Vrange
p6399
aVgt
p6400
aVgte
p6401
aVlt
p6402
aVlte
p6403
asVseconds
p6404
(lp6405
Vexact
p6406
asVno_timestamps
p6407
(lp6408
Vexact
p6409
asVrecord
p6410
(lp6411
Vexact
p6412
aVin
p6413
aVgt
p6414
aVgte
p6415
aVlt
p6416
aVlte
p6417
aVrange
p6418
asVrange
p6419
(lp6420
Vexact
p6421
aVin
p6422
aVgt
p6423
aVgte
p6424
aVlt
p6425
aVlte
p6426
aVrange
p6427
asVuser
p6428
(lp6429
Vexact
p6430
asVmax_values
p6431
(lp6432
Vexact
p6433
asVid
p6434
(lp6435
Vexact
p6436
aVin
p6437
aVgt
p6438
aVgte
p6439
aVlt
p6440
aVlte
p6441
aVrange
p6442
assg70
g6375
sVallowed_detail_http_methods
p6443
(lp6444
sVfields
p6445
(dp6446
g6379
(dp6447
Vnullable
p6448
I00
sVdefault
p6449
VNo default provided.
p6450
sVreadonly
p6451
I00
sVblank
p6452
I00
sVhelp_text
p6453
V__nodoc__
p6454
sVunique
p6455
I00
sVtype
p6456
Vinteger
p6457
ssg6382
(dp6458
g6448
I00
sg6449
VNo default provided.
p6459
sg6451
I00
sg6452
I00
sg6453
V__nodoc__
p6460
sg6455
I00
sg6456
Vinteger
p6461
ssg6385
(dp6462
g6448
I00
sg6449
VNo default provided.
p6463
sg6451
I00
sg6452
I00
sg6453
V__nodoc__
p6464
sg6455
I00
sg6456
Vinteger
p6465
ssg6388
(dp6466
Vrelated_type
p6467
Vto_one
p6468
sg6448
I00
sg6449
VNo default provided.
p6469
sg6451
I00
sg6452
I01
sg6453
V__nodoc__
p6470
sg6455
I00
sg6456
Vrelated
p6471
ssg6397
(dp6472
g6448
I00
sg6449
VNo default provided.
p6473
sg6451
I00
sg6452
I00
sg6453
V__nodoc__
p6474
sg6455
I00
sg6456
Vinteger
p6475
ssg6404
(dp6476
g6448
I00
sg6449
VNo default provided.
p6477
sg6451
I00
sg6452
I00
sg6453
V__nodoc__
p6478
sg6455
I00
sg6456
Vinteger
p6479
ssg6407
(dp6480
g6448
I00
sg6449
VNo default provided.
p6481
sg6451
I00
sg6452
I00
sg6453
V__nodoc__
p6482
sg6455
I00
sg6456
Vinteger
p6483
ssg6410
(dp6484
g6467
Vto_one
p6485
sg6448
I01
sg6449
VNo default provided.
p6486
sg6451
I00
sg6452
I01
sg6453
V__nodoc__
p6487
sg6455
I00
sg6456
Vrelated
p6488
ssg6419
(dp6489
g6467
Vto_one
p6490
sg6448
I00
sg6449
VNo default provided.
p6491
sg6451
I00
sg6452
I00
sg6453
V__nodoc__
p6492
sg6455
I00
sg6456
Vrelated
p6493
ssg6428
(dp6494
g6467
Vto_one
p6495
sg6448
I00
sg6449
VNo default provided.
p6496
sg6451
I00
sg6452
I00
sg6453
V__nodoc__
p6497
sg6455
I00
sg6456
Vrelated
p6498
ssg6431
(dp6499
g6448
I00
sg6449
VNo default provided.
p6500
sg6451
I00
sg6452
I00
sg6453
V__nodoc__
p6501
sg6455
I00
sg6456
Vinteger
p6502
sssg131
V/api/respiration/
p6503
sVdefault_format
p6504
Vapplication/json
p6505
sVdefault_limit
p6506
I20
sVallowed_list_http_methods
p6507
(lp6508
Vget
p6509
assVdatatype
p6510
(dp6511
g70
g6510
sVallowed_detail_http_methods
p6512
(lp6513
Vget
p6514
asVfields
p6515
(dp6516
Vinfo
p6517
(dp6518
Vnullable
p6519
I00
sVdefault
p6520
V
sVreadonly
p6521
I00
sVblank
p6522
I00
sVhelp_text
p6523
VUnicode string data. Ex: "Hello World"
p6524
sVunique
p6525
I00
sVtype
p6526
Vstring
p6527
ssVdataid
p6528
(dp6529
g6519
I00
sg6520
VNo default provided.
p6530
sg6521
I01
sg6522
I00
sg6523
VThe primary key for this resource. Integer data. Ex: 2673
p6531
sg6525
I01
sg6526
Vinteger
p6532
ssVname
p6533
(dp6534
g6519
I00
sg6520
VNo default provided.
p6535
sg6521
I00
sg6522
I00
sg6523
VUnicode string data. Ex: "Hello World"
p6536
sg6525
I00
sg6526
Vstring
p6537
ssVhexo_freq
p6538
(dp6539
g6519
I01
sg6520
VNo default provided.
p6540
sg6521
I00
sg6522
I00
sg6523
Vfrequency in 256ths of a second.  Derive Hz by 256/n.
p6541
sg6525
I00
sg6526
Vinteger
p6542
ssVresource_uri
p6543
(dp6544
g6519
I00
sg6520
VNo default provided.
p6545
sg6521
I01
sg6522
I00
sg6523
VThe unique URI where the object resides.
p6546
sg6525
I00
sg6526
Vstring
p6547
sssg131
V/api/datatype/
p6548
sVdefault_format
p6549
Vapplication/json
p6550
sVdefault_limit
p6551
I20
sVallowed_list_http_methods
p6552
(lp6553
Vget
p6554
assVhrvlf
p6555
(dp6556
Vfiltering
p6557
(dp6558
Vflat
p6559
(lp6560
Vexact
p6561
asVend
p6562
(lp6563
Vexact
p6564
asVstart
p6565
(lp6566
Vexact
p6567
asVdatatype
p6568
(lp6569
Vexact
p6570
aVin
p6571
aVgt
p6572
aVgte
p6573
aVlt
p6574
aVlte
p6575
aVrange
p6576
asVtimestamp
p6577
(lp6578
Vrange
p6579
aVgt
p6580
aVgte
p6581
aVlt
p6582
aVlte
p6583
asVseconds
p6584
(lp6585
Vexact
p6586
asVno_timestamps
p6587
(lp6588
Vexact
p6589
asVrecord
p6590
(lp6591
Vexact
p6592
aVin
p6593
aVgt
p6594
aVgte
p6595
aVlt
p6596
aVlte
p6597
aVrange
p6598
asVrange
p6599
(lp6600
Vexact
p6601
aVin
p6602
aVgt
p6603
aVgte
p6604
aVlt
p6605
aVlte
p6606
aVrange
p6607
asVuser
p6608
(lp6609
Vexact
p6610
asVmax_values
p6611
(lp6612
Vexact
p6613
asVid
p6614
(lp6615
Vexact
p6616
aVin
p6617
aVgt
p6618
aVgte
p6619
aVlt
p6620
aVlte
p6621
aVrange
p6622
assg70
g6555
sVallowed_detail_http_methods
p6623
(lp6624
sVfields
p6625
(dp6626
g6559
(dp6627
Vnullable
p6628
I00
sVdefault
p6629
VNo default provided.
p6630
sVreadonly
p6631
I00
sVblank
p6632
I00
sVhelp_text
p6633
V__nodoc__
p6634
sVunique
p6635
I00
sVtype
p6636
Vinteger
p6637
ssg6562
(dp6638
g6628
I00
sg6629
VNo default provided.
p6639
sg6631
I00
sg6632
I00
sg6633
V__nodoc__
p6640
sg6635
I00
sg6636
Vinteger
p6641
ssg6565
(dp6642
g6628
I00
sg6629
VNo default provided.
p6643
sg6631
I00
sg6632
I00
sg6633
V__nodoc__
p6644
sg6635
I00
sg6636
Vinteger
p6645
ssg6568
(dp6646
Vrelated_type
p6647
Vto_one
p6648
sg6628
I00
sg6629
VNo default provided.
p6649
sg6631
I00
sg6632
I01
sg6633
V__nodoc__
p6650
sg6635
I00
sg6636
Vrelated
p6651
ssg6577
(dp6652
g6628
I00
sg6629
VNo default provided.
p6653
sg6631
I00
sg6632
I00
sg6633
V__nodoc__
p6654
sg6635
I00
sg6636
Vinteger
p6655
ssg6584
(dp6656
g6628
I00
sg6629
VNo default provided.
p6657
sg6631
I00
sg6632
I00
sg6633
V__nodoc__
p6658
sg6635
I00
sg6636
Vinteger
p6659
ssg6587
(dp6660
g6628
I00
sg6629
VNo default provided.
p6661
sg6631
I00
sg6632
I00
sg6633
V__nodoc__
p6662
sg6635
I00
sg6636
Vinteger
p6663
ssg6590
(dp6664
g6647
Vto_one
p6665
sg6628
I01
sg6629
VNo default provided.
p6666
sg6631
I00
sg6632
I01
sg6633
V__nodoc__
p6667
sg6635
I00
sg6636
Vrelated
p6668
ssg6599
(dp6669
g6647
Vto_one
p6670
sg6628
I00
sg6629
VNo default provided.
p6671
sg6631
I00
sg6632
I00
sg6633
V__nodoc__
p6672
sg6635
I00
sg6636
Vrelated
p6673
ssg6608
(dp6674
g6647
Vto_one
p6675
sg6628
I00
sg6629
VNo default provided.
p6676
sg6631
I00
sg6632
I00
sg6633
V__nodoc__
p6677
sg6635
I00
sg6636
Vrelated
p6678
ssg6611
(dp6679
g6628
I00
sg6629
VNo default provided.
p6680
sg6631
I00
sg6632
I00
sg6633
V__nodoc__
p6681
sg6635
I00
sg6636
Vinteger
p6682
sssg131
V/api/hrvlf/
p6683
sVdefault_format
p6684
Vapplication/json
p6685
sVdefault_limit
p6686
I20
sVallowed_list_http_methods
p6687
(lp6688
Vget
p6689
assVactivitytype
p6690
(dp6691
Vfiltering
p6692
(dp6693
Vcategory
p6694
(lp6695
Vexact
p6696
aVin
p6697
asVshow_all
p6698
(lp6699
Vexact
p6700
asVbase
p6701
(lp6702
Vexact
p6703
aVin
p6704
asVuser
p6705
(lp6706
Vexact
p6707
aVin
p6708
aVgt
p6709
aVgte
p6710
aVlt
p6711
aVlte
p6712
aVrange
p6713
asVusing
p6714
(lp6715
Vexact
p6716
asVid
p6717
(lp6718
Vexact
p6719
aVin
p6720
aVgt
p6721
aVgte
p6722
aVlt
p6723
aVlte
p6724
aVrange
p6725
assg70
g6690
sVallowed_detail_http_methods
p6726
(lp6727
Vget
p6728
aVput
p6729
aVpatch
p6730
aVdelete
p6731
asVordering
p6732
(lp6733
Vid
p6734
aVuser
p6735
asVfields
p6736
(dp6737
g6694
(dp6738
Vnullable
p6739
I01
sVdefault
p6740
VNo default provided.
p6741
sVreadonly
p6742
I00
sVblank
p6743
I00
sVhelp_text
p6744
VUnicode string data. Ex: "Hello World". Must be one of "sleep", "resting", "lifestyle", "running", "cycling", "general sports".
p6745
sVunique
p6746
I00
sVtype
p6747
Vstring
p6748
ssVname
p6749
(dp6750
g6739
I00
sg6740
VNo default provided.
p6751
sg6742
I00
sg6743
I00
sg6744
VUnicode string data. Ex: "Hello World"
p6752
sg6746
I00
sg6747
Vstring
p6753
ssVdefault_metrics
p6754
(dp6755
Vrelated_type
p6756
Vto_many
p6757
sg6739
I00
sg6740
(lp6758
sg6742
I00
sg6743
I01
sg6744
VComma separated list of metrics that are returned by default
p6759
sg6746
I00
sg6747
Vrelated
p6760
ssg6701
(dp6761
g6739
I00
sg6740
VNo default provided.
p6762
sg6742
I00
sg6743
I00
sg6744
VThe basic type of the activitytype used internally to determine how particular attributes and statistics are calculated. One of: sleep, rest, low, medium, high.
p6763
sg6746
I00
sg6747
Vstring
p6764
ssg6705
(dp6765
g6756
Vto_one
p6766
sg6739
I01
sg6740
VNo default provided.
p6767
sg6742
I00
sg6743
I00
sg6744
VA [:r:user].  Maybe specified by URI, email, or ID.  Using a URI is recommended.
p6768
sg6746
I00
sg6747
Vrelated
p6769
ssg6714
(dp6770
g6739
I00
sg6740
VNo default provided.
p6771
sg6742
I00
sg6743
I00
sg6744
V__nodoc__
p6772
sg6746
I00
sg6747
Vstring
p6773
ssVresource_uri
p6774
(dp6775
g6739
I00
sg6740
VNo default provided.
p6776
sg6742
I01
sg6743
I00
sg6744
VThe unique URI where the object resides.
p6777
sg6746
I00
sg6747
Vstring
p6778
ssg6717
(dp6779
g6739
I00
sg6740
VNo default provided.
p6780
sg6742
I01
sg6743
I00
sg6744
VThe primary key for this resource. Integer data. Ex: 2673
p6781
sg6746
I01
sg6747
Vinteger
p6782
ssVdescription
p6783
(dp6784
g6739
I00
sg6740
V
sg6742
I00
sg6743
I01
sg6744
VUnicode string data. Ex: "Hello World"
p6785
sg6746
I00
sg6747
Vstring
p6786
sssg131
V/api/activitytype/
p6787
sVdefault_format
p6788
Vapplication/json
p6789
sVdefault_limit
p6790
I20
sVallowed_list_http_methods
p6791
(lp6792
Vget
p6793
aVpost
p6794
aVpatch
p6795
assVlabel
p6796
(dp6797
Vfiltering
p6798
(dp6799
Vid
p6800
(lp6801
Vexact
p6802
aVin
p6803
aVgt
p6804
aVgte
p6805
aVlt
p6806
aVlte
p6807
aVrange
p6808
asVuser
p6809
(lp6810
Vexact
p6811
aVin
p6812
aVgt
p6813
aVgte
p6814
aVlt
p6815
aVlte
p6816
aVrange
p6817
assg70
g6796
sVallowed_detail_http_methods
p6818
(lp6819
Vget
p6820
aVput
p6821
aVpatch
p6822
aVdelete
p6823
asVfields
p6824
(dp6825
g6809
(dp6826
Vrelated_type
p6827
Vto_one
p6828
sVnullable
p6829
I00
sVdefault
p6830
VNo default provided.
p6831
sVreadonly
p6832
I00
sVblank
p6833
I00
sVhelp_text
p6834
VA [:r:user].  Maybe specified by URI, email, or ID.  Using a URI is recommended.
p6835
sVunique
p6836
I00
sVtype
p6837
Vrelated
p6838
ssVresource_uri
p6839
(dp6840
g6829
I00
sg6830
VNo default provided.
p6841
sg6832
I01
sg6833
I00
sg6834
VThe unique URI where the object resides.
p6842
sg6836
I00
sg6837
Vstring
p6843
ssg6800
(dp6844
g6829
I00
sg6830
VNo default provided.
p6845
sg6832
I01
sg6833
I00
sg6834
VThe primary key for this resource. Integer data. Ex: 2673
p6846
sg6836
I01
sg6837
Vinteger
p6847
ssVname
p6848
(dp6849
g6829
I00
sg6830
VNo default provided.
p6850
sg6832
I00
sg6833
I00
sg6834
VUnicode string data. Ex: "Hello World"
p6851
sg6836
I00
sg6837
Vstring
p6852
sssg131
V/api/label/
p6853
sVdefault_format
p6854
Vapplication/json
p6855
sVdefault_limit
p6856
I20
sVallowed_list_http_methods
p6857
(lp6858
Vget
p6859
aVpost
p6860
aVpatch
p6861
assVtemplatereport
p6862
(dp6863
Vfiltering
p6864
(dp6865
Vcategory
p6866
(lp6867
Vexact
p6868
aVin
p6869
asVend
p6870
(lp6871
Vexact
p6872
asVrecord
p6873
(lp6874
Vexact
p6875
aVin
p6876
asVinclude_autodetected
p6877
(lp6878
Vtrue
p6879
asVinclude_metrics
p6880
(lp6881
Vexact
p6882
aVin
p6883
asVactivitytype
p6884
(lp6885
Vexact
p6886
aVin
p6887
aVisnull
p6888
asVstart
p6889
(lp6890
Vexact
p6891
asVtrainingroutine
p6892
(lp6893
Vexact
p6894
aVin
p6895
aVisnull
p6896
asVgrouped
p6897
(lp6898
Vexact
p6899
asVrange
p6900
(lp6901
Vexact
p6902
aVin
p6903
asVgroup_by
p6904
(lp6905
Vexact
p6906
aVday
p6907
asVuser
p6908
(lp6909
Vexact
p6910
aVin
p6911
asVtime
p6912
(lp6913
Vexact
p6914
aVday
p6915
asVdisplay
p6916
(lp6917
Vexact
p6918
assg70
g6862
sVallowed_detail_http_methods
p6919
(lp6920
Vget
p6921
asVfields
p6922
(dp6923
g6866
(dp6924
Vrelated_type
p6925
Vto_one
p6926
sVnullable
p6927
I01
sVdefault
p6928
VNo default provided.
p6929
sVreadonly
p6930
I00
sVblank
p6931
I00
sVhelp_text
p6932
Vlist of category used in conjunction with "user", "start" and "end" to filter what data will be analysed
p6933
sVunique
p6934
I00
sVtype
p6935
Vrelated
p6936
ssg6870
(dp6937
g6927
I01
sg6928
VNo default provided.
p6938
sg6930
I00
sg6931
I00
sg6932
VAn integer indicating the number of 256ths of a second that have passed since Jan 1, 1970 UTC, ie. a traditional timestamp, multiplied by 256. The value will be ceil to the next UTC hour.
p6939
sg6934
I00
sg6935
Vinteger
p6940
ssg6889
(dp6941
g6927
I01
sg6928
VNo default provided.
p6942
sg6930
I00
sg6931
I00
sg6932
VAn integer indicating the number of 256ths of a second that have passed since Jan 1, 1970 UTC, ie. a traditional timestamp, multiplied by 256. The value will be floor to the previous UTC hour.
p6943
sg6934
I00
sg6935
Vinteger
p6944
ssg6880
(dp6945
g6925
Vto_many
p6946
sg6927
I00
sg6928
VNo default provided.
p6947
sg6930
I00
sg6931
I00
sg6932
VList of metric IDs that specify the metrics that will be extracted
p6948
sg6934
I00
sg6935
Vrelated
p6949
ssg6884
(dp6950
g6925
Vto_one
p6951
sg6927
I01
sg6928
VNo default provided.
p6952
sg6930
I00
sg6931
I00
sg6932
Vlist of activitytype used in conjunction with "user", "start" and "end" to filter what data will be analysed
p6953
sg6934
I00
sg6935
Vrelated
p6954
ssg6873
(dp6955
g6925
Vto_one
p6956
sg6927
I01
sg6928
VNo default provided.
p6957
sg6930
I00
sg6931
I00
sg6932
Vlist of record on which the metrics are extracted
p6958
sg6934
I00
sg6935
Vrelated
p6959
ssg6900
(dp6960
g6925
Vto_one
p6961
sg6927
I01
sg6928
VNo default provided.
p6962
sg6930
I00
sg6931
I00
sg6932
Vlist of range on which the metrics are extracted
p6963
sg6934
I00
sg6935
Vrelated
p6964
ssg6908
(dp6965
g6925
Vto_one
p6966
sg6927
I01
sg6928
VNo default provided.
p6967
sg6930
I00
sg6931
I00
sg6932
V__nodoc__
p6968
sg6934
I00
sg6935
Vrelated
p6969
ssg6892
(dp6970
g6925
Vto_one
p6971
sg6927
I01
sg6928
VNo default provided.
p6972
sg6930
I00
sg6931
I00
sg6932
Vlist of trainingroutine used in conjunction with "user", "start" and "end" to filter what data will be analysed
p6973
sg6934
I00
sg6935
Vrelated
p6974
ssVresource_uri
p6975
(dp6976
g6927
I00
sg6928
VNo default provided.
p6977
sg6930
I01
sg6931
I00
sg6932
VThe unique URI where the object resides.
p6978
sg6934
I00
sg6935
Vstring
p6979
sssg131
V/api/templatereport/
p6980
sVdefault_format
p6981
Vapplication/json
p6982
sVdefault_limit
p6983
I20
sVallowed_list_http_methods
p6984
(lp6985
Vget
p6986
aVpost
p6987
aVpatch
p6988
assVhrvhfnorm
p6989
(dp6990
Vfiltering
p6991
(dp6992
Vflat
p6993
(lp6994
Vexact
p6995
asVend
p6996
(lp6997
Vexact
p6998
asVstart
p6999
(lp7000
Vexact
p7001
asVdatatype
p7002
(lp7003
Vexact
p7004
aVin
p7005
aVgt
p7006
aVgte
p7007
aVlt
p7008
aVlte
p7009
aVrange
p7010
asVtimestamp
p7011
(lp7012
Vrange
p7013
aVgt
p7014
aVgte
p7015
aVlt
p7016
aVlte
p7017
asVseconds
p7018
(lp7019
Vexact
p7020
asVno_timestamps
p7021
(lp7022
Vexact
p7023
asVrecord
p7024
(lp7025
Vexact
p7026
aVin
p7027
aVgt
p7028
aVgte
p7029
aVlt
p7030
aVlte
p7031
aVrange
p7032
asVrange
p7033
(lp7034
Vexact
p7035
aVin
p7036
aVgt
p7037
aVgte
p7038
aVlt
p7039
aVlte
p7040
aVrange
p7041
asVuser
p7042
(lp7043
Vexact
p7044
asVmax_values
p7045
(lp7046
Vexact
p7047
asVid
p7048
(lp7049
Vexact
p7050
aVin
p7051
aVgt
p7052
aVgte
p7053
aVlt
p7054
aVlte
p7055
aVrange
p7056
assg70
g6989
sVallowed_detail_http_methods
p7057
(lp7058
sVfields
p7059
(dp7060
g6993
(dp7061
Vnullable
p7062
I00
sVdefault
p7063
VNo default provided.
p7064
sVreadonly
p7065
I00
sVblank
p7066
I00
sVhelp_text
p7067
V__nodoc__
p7068
sVunique
p7069
I00
sVtype
p7070
Vinteger
p7071
ssg6996
(dp7072
g7062
I00
sg7063
VNo default provided.
p7073
sg7065
I00
sg7066
I00
sg7067
V__nodoc__
p7074
sg7069
I00
sg7070
Vinteger
p7075
ssg6999
(dp7076
g7062
I00
sg7063
VNo default provided.
p7077
sg7065
I00
sg7066
I00
sg7067
V__nodoc__
p7078
sg7069
I00
sg7070
Vinteger
p7079
ssg7002
(dp7080
Vrelated_type
p7081
Vto_one
p7082
sg7062
I00
sg7063
VNo default provided.
p7083
sg7065
I00
sg7066
I01
sg7067
V__nodoc__
p7084
sg7069
I00
sg7070
Vrelated
p7085
ssg7011
(dp7086
g7062
I00
sg7063
VNo default provided.
p7087
sg7065
I00
sg7066
I00
sg7067
V__nodoc__
p7088
sg7069
I00
sg7070
Vinteger
p7089
ssg7018
(dp7090
g7062
I00
sg7063
VNo default provided.
p7091
sg7065
I00
sg7066
I00
sg7067
V__nodoc__
p7092
sg7069
I00
sg7070
Vinteger
p7093
ssg7021
(dp7094
g7062
I00
sg7063
VNo default provided.
p7095
sg7065
I00
sg7066
I00
sg7067
V__nodoc__
p7096
sg7069
I00
sg7070
Vinteger
p7097
ssg7024
(dp7098
g7081
Vto_one
p7099
sg7062
I01
sg7063
VNo default provided.
p7100
sg7065
I00
sg7066
I01
sg7067
V__nodoc__
p7101
sg7069
I00
sg7070
Vrelated
p7102
ssg7033
(dp7103
g7081
Vto_one
p7104
sg7062
I00
sg7063
VNo default provided.
p7105
sg7065
I00
sg7066
I00
sg7067
V__nodoc__
p7106
sg7069
I00
sg7070
Vrelated
p7107
ssg7042
(dp7108
g7081
Vto_one
p7109
sg7062
I00
sg7063
VNo default provided.
p7110
sg7065
I00
sg7066
I00
sg7067
V__nodoc__
p7111
sg7069
I00
sg7070
Vrelated
p7112
ssg7045
(dp7113
g7062
I00
sg7063
VNo default provided.
p7114
sg7065
I00
sg7066
I00
sg7067
V__nodoc__
p7115
sg7069
I00
sg7070
Vinteger
p7116
sssg131
V/api/hrvhfnorm/
p7117
sVdefault_format
p7118
Vapplication/json
p7119
sVdefault_limit
p7120
I20
sVallowed_list_http_methods
p7121
(lp7122
Vget
p7123
assVminuteventilation
p7124
(dp7125
Vfiltering
p7126
(dp7127
Vflat
p7128
(lp7129
Vexact
p7130
asVend
p7131
(lp7132
Vexact
p7133
asVstart
p7134
(lp7135
Vexact
p7136
asVdatatype
p7137
(lp7138
Vexact
p7139
aVin
p7140
aVgt
p7141
aVgte
p7142
aVlt
p7143
aVlte
p7144
aVrange
p7145
asVtimestamp
p7146
(lp7147
Vrange
p7148
aVgt
p7149
aVgte
p7150
aVlt
p7151
aVlte
p7152
asVseconds
p7153
(lp7154
Vexact
p7155
asVno_timestamps
p7156
(lp7157
Vexact
p7158
asVrecord
p7159
(lp7160
Vexact
p7161
aVin
p7162
aVgt
p7163
aVgte
p7164
aVlt
p7165
aVlte
p7166
aVrange
p7167
asVrange
p7168
(lp7169
Vexact
p7170
aVin
p7171
aVgt
p7172
aVgte
p7173
aVlt
p7174
aVlte
p7175
aVrange
p7176
asVuser
p7177
(lp7178
Vexact
p7179
asVmax_values
p7180
(lp7181
Vexact
p7182
asVid
p7183
(lp7184
Vexact
p7185
aVin
p7186
aVgt
p7187
aVgte
p7188
aVlt
p7189
aVlte
p7190
aVrange
p7191
assg70
g7124
sVallowed_detail_http_methods
p7192
(lp7193
sVfields
p7194
(dp7195
g7128
(dp7196
Vnullable
p7197
I00
sVdefault
p7198
VNo default provided.
p7199
sVreadonly
p7200
I00
sVblank
p7201
I00
sVhelp_text
p7202
V__nodoc__
p7203
sVunique
p7204
I00
sVtype
p7205
Vinteger
p7206
ssg7131
(dp7207
g7197
I00
sg7198
VNo default provided.
p7208
sg7200
I00
sg7201
I00
sg7202
V__nodoc__
p7209
sg7204
I00
sg7205
Vinteger
p7210
ssg7134
(dp7211
g7197
I00
sg7198
VNo default provided.
p7212
sg7200
I00
sg7201
I00
sg7202
V__nodoc__
p7213
sg7204
I00
sg7205
Vinteger
p7214
ssg7137
(dp7215
Vrelated_type
p7216
Vto_one
p7217
sg7197
I00
sg7198
VNo default provided.
p7218
sg7200
I00
sg7201
I01
sg7202
V__nodoc__
p7219
sg7204
I00
sg7205
Vrelated
p7220
ssg7146
(dp7221
g7197
I00
sg7198
VNo default provided.
p7222
sg7200
I00
sg7201
I00
sg7202
V__nodoc__
p7223
sg7204
I00
sg7205
Vinteger
p7224
ssg7153
(dp7225
g7197
I00
sg7198
VNo default provided.
p7226
sg7200
I00
sg7201
I00
sg7202
V__nodoc__
p7227
sg7204
I00
sg7205
Vinteger
p7228
ssg7156
(dp7229
g7197
I00
sg7198
VNo default provided.
p7230
sg7200
I00
sg7201
I00
sg7202
V__nodoc__
p7231
sg7204
I00
sg7205
Vinteger
p7232
ssg7159
(dp7233
g7216
Vto_one
p7234
sg7197
I01
sg7198
VNo default provided.
p7235
sg7200
I00
sg7201
I01
sg7202
V__nodoc__
p7236
sg7204
I00
sg7205
Vrelated
p7237
ssg7168
(dp7238
g7216
Vto_one
p7239
sg7197
I00
sg7198
VNo default provided.
p7240
sg7200
I00
sg7201
I00
sg7202
V__nodoc__
p7241
sg7204
I00
sg7205
Vrelated
p7242
ssg7177
(dp7243
g7216
Vto_one
p7244
sg7197
I00
sg7198
VNo default provided.
p7245
sg7200
I00
sg7201
I00
sg7202
V__nodoc__
p7246
sg7204
I00
sg7205
Vrelated
p7247
ssg7180
(dp7248
g7197
I00
sg7198
VNo default provided.
p7249
sg7200
I00
sg7201
I00
sg7202
V__nodoc__
p7250
sg7204
I00
sg7205
Vinteger
p7251
sssg131
V/api/minuteventilation/
p7252
sVdefault_format
p7253
Vapplication/json
p7254
sVdefault_limit
p7255
I20
sVallowed_list_http_methods
p7256
(lp7257
Vget
p7258
assVsleepposition
p7259
(dp7260
Vfiltering
p7261
(dp7262
Vflat
p7263
(lp7264
Vexact
p7265
asVend
p7266
(lp7267
Vexact
p7268
asVstart
p7269
(lp7270
Vexact
p7271
asVdatatype
p7272
(lp7273
Vexact
p7274
aVin
p7275
aVgt
p7276
aVgte
p7277
aVlt
p7278
aVlte
p7279
aVrange
p7280
asVtimestamp
p7281
(lp7282
Vrange
p7283
aVgt
p7284
aVgte
p7285
aVlt
p7286
aVlte
p7287
asVseconds
p7288
(lp7289
Vexact
p7290
asVno_timestamps
p7291
(lp7292
Vexact
p7293
asVrecord
p7294
(lp7295
Vexact
p7296
aVin
p7297
aVgt
p7298
aVgte
p7299
aVlt
p7300
aVlte
p7301
aVrange
p7302
asVrange
p7303
(lp7304
Vexact
p7305
aVin
p7306
aVgt
p7307
aVgte
p7308
aVlt
p7309
aVlte
p7310
aVrange
p7311
asVuser
p7312
(lp7313
Vexact
p7314
asVmax_values
p7315
(lp7316
Vexact
p7317
asVid
p7318
(lp7319
Vexact
p7320
aVin
p7321
aVgt
p7322
aVgte
p7323
aVlt
p7324
aVlte
p7325
aVrange
p7326
assg70
g7259
sVallowed_detail_http_methods
p7327
(lp7328
sVfields
p7329
(dp7330
g7263
(dp7331
Vnullable
p7332
I00
sVdefault
p7333
VNo default provided.
p7334
sVreadonly
p7335
I00
sVblank
p7336
I00
sVhelp_text
p7337
V__nodoc__
p7338
sVunique
p7339
I00
sVtype
p7340
Vinteger
p7341
ssg7266
(dp7342
g7332
I00
sg7333
VNo default provided.
p7343
sg7335
I00
sg7336
I00
sg7337
V__nodoc__
p7344
sg7339
I00
sg7340
Vinteger
p7345
ssg7269
(dp7346
g7332
I00
sg7333
VNo default provided.
p7347
sg7335
I00
sg7336
I00
sg7337
V__nodoc__
p7348
sg7339
I00
sg7340
Vinteger
p7349
ssg7272
(dp7350
Vrelated_type
p7351
Vto_one
p7352
sg7332
I00
sg7333
VNo default provided.
p7353
sg7335
I00
sg7336
I01
sg7337
V__nodoc__
p7354
sg7339
I00
sg7340
Vrelated
p7355
ssg7281
(dp7356
g7332
I00
sg7333
VNo default provided.
p7357
sg7335
I00
sg7336
I00
sg7337
V__nodoc__
p7358
sg7339
I00
sg7340
Vinteger
p7359
ssg7288
(dp7360
g7332
I00
sg7333
VNo default provided.
p7361
sg7335
I00
sg7336
I00
sg7337
V__nodoc__
p7362
sg7339
I00
sg7340
Vinteger
p7363
ssg7291
(dp7364
g7332
I00
sg7333
VNo default provided.
p7365
sg7335
I00
sg7336
I00
sg7337
V__nodoc__
p7366
sg7339
I00
sg7340
Vinteger
p7367
ssg7294
(dp7368
g7351
Vto_one
p7369
sg7332
I01
sg7333
VNo default provided.
p7370
sg7335
I00
sg7336
I01
sg7337
V__nodoc__
p7371
sg7339
I00
sg7340
Vrelated
p7372
ssg7303
(dp7373
g7351
Vto_one
p7374
sg7332
I00
sg7333
VNo default provided.
p7375
sg7335
I00
sg7336
I00
sg7337
V__nodoc__
p7376
sg7339
I00
sg7340
Vrelated
p7377
ssg7312
(dp7378
g7351
Vto_one
p7379
sg7332
I00
sg7333
VNo default provided.
p7380
sg7335
I00
sg7336
I00
sg7337
V__nodoc__
p7381
sg7339
I00
sg7340
Vrelated
p7382
ssg7315
(dp7383
g7332
I00
sg7333
VNo default provided.
p7384
sg7335
I00
sg7336
I00
sg7337
V__nodoc__
p7385
sg7339
I00
sg7340
Vinteger
p7386
sssg131
V/api/sleepposition/
p7387
sVdefault_format
p7388
Vapplication/json
p7389
sVdefault_limit
p7390
I20
sVallowed_list_http_methods
p7391
(lp7392
Vget
p7393
assVrange
p7394
(dp7395
Vfiltering
p7396
(dp7397
Vlabels
p7398
(lp7399
Vexact
p7400
aVin
p7401
asVend
p7402
(lp7403
Vexact
p7404
aVrange
p7405
aVgt
p7406
aVgte
p7407
aVlt
p7408
aVlte
p7409
asVinclude_autodetected
p7410
(lp7411
Vtrue
p7412
asVinclude_metrics
p7413
(lp7414
Vexact
p7415
asVactivitytype
p7416
(lp7417
Vexact
p7418
aVin
p7419
aVisnull
p7420
asVshow_all
p7421
(lp7422
Vexact
p7423
asVrank
p7424
(lp7425
Vexact
p7426
aVin
p7427
aVgt
p7428
aVgte
p7429
aVlt
p7430
aVlte
p7431
aVrange
p7432
asVtrainingroutine
p7433
I2
sVstart
p7434
(lp7435
Vexact
p7436
aVrange
p7437
aVgt
p7438
aVgte
p7439
aVlt
p7440
aVlte
p7441
asVlast_modified
p7442
(lp7443
Vexact
p7444
aVin
p7445
aVrange
p7446
aVgt
p7447
aVgte
p7448
aVlt
p7449
aVlte
p7450
asVinclude_histograms
p7451
(lp7452
Vexact
p7453
asVuser
p7454
(lp7455
Vexact
p7456
aVin
p7457
aVgt
p7458
aVgte
p7459
aVlt
p7460
aVlte
p7461
aVrange
p7462
asVduration
p7463
(lp7464
Vexact
p7465
aVin
p7466
aVrange
p7467
aVgt
p7468
aVgte
p7469
aVlt
p7470
aVlte
p7471
asVid
p7472
(lp7473
Vexact
p7474
aVin
p7475
aVgt
p7476
aVgte
p7477
aVlt
p7478
aVlte
p7479
aVrange
p7480
assg70
g7394
sVallowed_detail_http_methods
p7481
(lp7482
Vget
p7483
aVput
p7484
aVpatch
p7485
aVdelete
p7486
asVordering
p7487
(lp7488
Vid
p7489
aVstart
p7490
aVend
p7491
aVuser
p7492
aVtrainingroutine
p7493
aVrank
p7494
aVduration
p7495
aVlast_modified
p7496
asVfields
p7497
(dp7498
Vstatus
p7499
(dp7500
Vnullable
p7501
I00
sVdefault
p7502
VNo default provided.
p7503
sVreadonly
p7504
I01
sVblank
p7505
I00
sVhelp_text
p7506
VThe status as derived from the Records available in this Range.
p7507
sVunique
p7508
I00
sVtype
p7509
Vstring
p7510
ssVnote
p7511
(dp7512
g7501
I00
sg7502
V
sg7504
I00
sg7505
I01
sg7506
VUnicode string data. Ex: "Hello World"
p7513
sg7508
I00
sg7509
Vstring
p7514
ssg7416
(dp7515
Vrelated_type
p7516
Vto_one
p7517
sg7501
I01
sg7502
VNo default provided.
p7518
sg7504
I01
sg7505
I01
sg7506
VA reference to [:r:activitytype].  Maybe specified by URI or ID.  Using a URI is recommended.
p7519
sg7508
I00
sg7509
Vrelated
p7520
ssg7402
(dp7521
g7501
I01
sg7502
VNo default provided.
p7522
sg7504
I00
sg7505
I01
sg7506
V An integer indicating the number of 256ths of a second that have passed since Jan 1, 1970 UTC, ie. a traditional timestamp, multiplied by 256.
p7523
sg7508
I00
sg7509
Vinteger
p7524
ssVname
p7525
(dp7526
g7501
I00
sg7502
V
sg7504
I00
sg7505
I01
sg7506
VUnicode string data. Ex: "Hello World"
p7527
sg7508
I00
sg7509
Vstring
p7528
ssVparent
p7529
(dp7530
g7516
Vto_one
p7531
sg7501
I01
sg7502
VNo default provided.
p7532
sg7504
I00
sg7505
I01
sg7506
VA reference to [:r:range].  Maybe specified by URI or ID.  Using a URI is recommended.
p7533
sg7508
I00
sg7509
Vrelated
p7534
ssVcreated
p7535
(dp7536
g7501
I00
sg7502
VNo default provided.
p7537
sg7504
I01
sg7505
I00
sg7506
VCreated automatically
p7538
sg7508
I00
sg7509
Vdatetime
p7539
ssg7398
(dp7540
g7516
Vto_many
p7541
sg7501
I01
sg7502
VNo default provided.
p7542
sg7504
I00
sg7505
I01
sg7506
VMany related resources. Can be either a list of URIs or list of individually nested resource data.
p7543
sg7508
I00
sg7509
Vrelated
p7544
ssVranges
p7545
(dp7546
g7501
I00
sg7502
VNo default provided.
p7547
sg7504
I01
sg7505
I00
sg7506
VContains child ranges. This field is only populated in the detail view. Ranges in a list of ranges will not contain this attribute.
p7548
sg7508
I00
sg7509
Vstring
p7549
ssg7424
(dp7550
g7501
I00
sg7502
I0
sg7504
I00
sg7505
I01
sg7506
VInteger data. Ex: 2673
p7551
sg7508
I00
sg7509
Vinteger
p7552
ssVstart_date
p7553
(dp7554
g7501
I00
sg7502
VNo default provided.
p7555
sg7504
I01
sg7505
I00
sg7506
VA date & time as a string. Ex: "2010-11-10T03:07:43"
p7556
sg7508
I00
sg7509
Vdatetime
p7557
ssVmetrics
p7558
(dp7559
g7516
Vto_many
p7560
sg7501
I01
sg7502
VNo default provided.
p7561
sg7504
I01
sg7505
I01
sg7506
VThis field will contain an array of the metrics specified in `include_metrics`. If this argument is not supplied or there are no metrics for the given Range, it will be empty.
p7562
sg7508
I00
sg7509
Vrelated
p7563
ssg7434
(dp7564
g7501
I00
sg7502
VNo default provided.
p7565
sg7504
I00
sg7505
I00
sg7506
V An integer indicating the number of 256ths of a second that have passed since Jan 1, 1970 UTC, ie. a traditional timestamp, multiplied by 256.
p7566
sg7508
I00
sg7509
Vinteger
p7567
ssg7442
(dp7568
g7501
I00
sg7502
VNo default provided.
p7569
sg7504
I01
sg7505
I00
sg7506
VA date & time as a string. Ex: "2010-11-10T03:07:43"
p7570
sg7508
I00
sg7509
Vdatetime
p7571
ssg7454
(dp7572
g7516
Vto_one
p7573
sg7501
I00
sg7502
VNo default provided.
p7574
sg7504
I00
sg7505
I00
sg7506
VA [:r:user].  Maybe specified by URI, email, or ID.  Using a URI is recommended.
p7575
sg7508
I00
sg7509
Vrelated
p7576
ssg7463
(dp7577
g7501
I01
sg7502
VNo default provided.
p7578
sg7504
I01
sg7505
I00
sg7506
VAn integer representing the desired duration in seconds
p7579
sg7508
I00
sg7509
Vstring
p7580
ssg7433
(dp7581
g7516
Vto_one
p7582
sg7501
I01
sg7502
VNo default provided.
p7583
sg7504
I01
sg7505
I01
sg7506
VA reference to [:r:trainingroutine].  Maybe specified by URI or ID.  Using a URI is recommended.
p7584
sg7508
I00
sg7509
Vrelated
p7585
ssg7472
(dp7586
g7501
I00
sg7502
VNo default provided.
p7587
sg7504
I01
sg7505
I00
sg7506
VThe primary key for this resource. Integer data. Ex: 2673
p7588
sg7508
I01
sg7509
Vinteger
p7589
ssVresource_uri
p7590
(dp7591
g7501
I00
sg7502
VNo default provided.
p7592
sg7504
I01
sg7505
I00
sg7506
VThe unique URI where the object resides.
p7593
sg7508
I00
sg7509
Vstring
p7594
sssg131
V/api/range/
p7595
sVdefault_format
p7596
Vapplication/json
p7597
sVdefault_limit
p7598
I20
sVallowed_list_http_methods
p7599
(lp7600
Vget
p7601
aVpost
p7602
aVpatch
p7603
assVexpiration
p7604
(dp7605
Vfiltering
p7606
(dp7607
Vflat
p7608
(lp7609
Vexact
p7610
asVend
p7611
(lp7612
Vexact
p7613
asVstart
p7614
(lp7615
Vexact
p7616
asVdatatype
p7617
(lp7618
Vexact
p7619
aVin
p7620
aVgt
p7621
aVgte
p7622
aVlt
p7623
aVlte
p7624
aVrange
p7625
asVtimestamp
p7626
(lp7627
Vrange
p7628
aVgt
p7629
aVgte
p7630
aVlt
p7631
aVlte
p7632
asVseconds
p7633
(lp7634
Vexact
p7635
asVno_timestamps
p7636
(lp7637
Vexact
p7638
asVrecord
p7639
(lp7640
Vexact
p7641
aVin
p7642
aVgt
p7643
aVgte
p7644
aVlt
p7645
aVlte
p7646
aVrange
p7647
asVrange
p7648
(lp7649
Vexact
p7650
aVin
p7651
aVgt
p7652
aVgte
p7653
aVlt
p7654
aVlte
p7655
aVrange
p7656
asVuser
p7657
(lp7658
Vexact
p7659
asVmax_values
p7660
(lp7661
Vexact
p7662
asVid
p7663
(lp7664
Vexact
p7665
aVin
p7666
aVgt
p7667
aVgte
p7668
aVlt
p7669
aVlte
p7670
aVrange
p7671
assg70
g7604
sVallowed_detail_http_methods
p7672
(lp7673
sVfields
p7674
(dp7675
g7608
(dp7676
Vnullable
p7677
I00
sVdefault
p7678
VNo default provided.
p7679
sVreadonly
p7680
I00
sVblank
p7681
I00
sVhelp_text
p7682
V__nodoc__
p7683
sVunique
p7684
I00
sVtype
p7685
Vinteger
p7686
ssg7611
(dp7687
g7677
I00
sg7678
VNo default provided.
p7688
sg7680
I00
sg7681
I00
sg7682
V__nodoc__
p7689
sg7684
I00
sg7685
Vinteger
p7690
ssg7614
(dp7691
g7677
I00
sg7678
VNo default provided.
p7692
sg7680
I00
sg7681
I00
sg7682
V__nodoc__
p7693
sg7684
I00
sg7685
Vinteger
p7694
ssg7617
(dp7695
Vrelated_type
p7696
Vto_one
p7697
sg7677
I00
sg7678
VNo default provided.
p7698
sg7680
I00
sg7681
I01
sg7682
V__nodoc__
p7699
sg7684
I00
sg7685
Vrelated
p7700
ssg7626
(dp7701
g7677
I00
sg7678
VNo default provided.
p7702
sg7680
I00
sg7681
I00
sg7682
V__nodoc__
p7703
sg7684
I00
sg7685
Vinteger
p7704
ssg7633
(dp7705
g7677
I00
sg7678
VNo default provided.
p7706
sg7680
I00
sg7681
I00
sg7682
V__nodoc__
p7707
sg7684
I00
sg7685
Vinteger
p7708
ssg7636
(dp7709
g7677
I00
sg7678
VNo default provided.
p7710
sg7680
I00
sg7681
I00
sg7682
V__nodoc__
p7711
sg7684
I00
sg7685
Vinteger
p7712
ssg7639
(dp7713
g7696
Vto_one
p7714
sg7677
I01
sg7678
VNo default provided.
p7715
sg7680
I00
sg7681
I01
sg7682
V__nodoc__
p7716
sg7684
I00
sg7685
Vrelated
p7717
ssg7648
(dp7718
g7696
Vto_one
p7719
sg7677
I00
sg7678
VNo default provided.
p7720
sg7680
I00
sg7681
I00
sg7682
V__nodoc__
p7721
sg7684
I00
sg7685
Vrelated
p7722
ssg7657
(dp7723
g7696
Vto_one
p7724
sg7677
I00
sg7678
VNo default provided.
p7725
sg7680
I00
sg7681
I00
sg7682
V__nodoc__
p7726
sg7684
I00
sg7685
Vrelated
p7727
ssg7660
(dp7728
g7677
I00
sg7678
VNo default provided.
p7729
sg7680
I00
sg7681
I00
sg7682
V__nodoc__
p7730
sg7684
I00
sg7685
Vinteger
p7731
sssg131
V/api/expiration/
p7732
sVdefault_format
p7733
Vapplication/json
p7734
sVdefault_limit
p7735
I20
sVallowed_list_http_methods
p7736
(lp7737
Vget
p7738
assVteam
p7739
(dp7740
Vfiltering
p7741
(dp7742
Vid
p7743
(lp7744
Vexact
p7745
aVin
p7746
aVgt
p7747
aVgte
p7748
aVlt
p7749
aVlte
p7750
aVrange
p7751
asVname
p7752
(lp7753
Vexact
p7754
assg70
g7739
sVallowed_detail_http_methods
p7755
(lp7756
Vget
p7757
aVput
p7758
aVpatch
p7759
aVdelete
p7760
asVordering
p7761
(lp7762
Vid
p7763
aVname
p7764
asVfields
p7765
(dp7766
Vowner
p7767
(dp7768
Vrelated_type
p7769
Vto_one
p7770
sVnullable
p7771
I00
sVdefault
p7772
VNo default provided.
p7773
sVreadonly
p7774
I00
sVblank
p7775
I00
sVhelp_text
p7776
VA [:r:user].  Maybe specified by URI, email, or ID.  Using a URI is recommended.
p7777
sVunique
p7778
I00
sVtype
p7779
Vrelated
p7780
ssVresource_uri
p7781
(dp7782
g7771
I00
sg7772
VNo default provided.
p7783
sg7774
I01
sg7775
I00
sg7776
VThe unique URI where the object resides.
p7784
sg7778
I00
sg7779
Vstring
p7785
ssg7743
(dp7786
g7771
I00
sg7772
VNo default provided.
p7787
sg7774
I01
sg7775
I00
sg7776
VThe primary key for this resource. Integer data. Ex: 2673
p7788
sg7778
I01
sg7779
Vinteger
p7789
ssVmembers
p7790
(dp7791
g7769
Vto_many
p7792
sg7771
I00
sg7772
VNo default provided.
p7793
sg7774
I00
sg7775
I00
sg7776
VA list of [:r:user]s specified by URI.
p7794
sg7778
I00
sg7779
Vrelated
p7795
ssg7752
(dp7796
g7771
I00
sg7772
VNo default provided.
p7797
sg7774
I00
sg7775
I00
sg7776
VTeam name
p7798
sg7778
I00
sg7779
Vstring
p7799
sssg131
V/api/team/
p7800
sVdefault_format
p7801
Vapplication/json
p7802
sVdefault_limit
p7803
I20
sVallowed_list_http_methods
p7804
(lp7805
Vget
p7806
aVpost
p7807
assVactivitylog
p7808
(dp7809
Vfiltering
p7810
(dp7811
Vresource_name
p7812
(lp7813
Vexact
p7814
aVin
p7815
asVobject_resource_uri
p7816
(lp7817
Vexact
p7818
aVin
p7819
aVisnull
p7820
asVobject_id
p7821
(lp7822
Vexact
p7823
aVin
p7824
aVisnull
p7825
asVmethod
p7826
(lp7827
Vexact
p7828
aVin
p7829
asVlastchange
p7830
(lp7831
Vtrue
p7832
asVuser
p7833
(lp7834
Vexact
p7835
aVin
p7836
aVgt
p7837
aVgte
p7838
aVlt
p7839
aVlte
p7840
aVrange
p7841
asVdate
p7842
(lp7843
Vexact
p7844
aVrange
p7845
aVgt
p7846
aVgte
p7847
aVlt
p7848
aVlte
p7849
asVid
p7850
(lp7851
Vexact
p7852
aVin
p7853
aVgt
p7854
aVgte
p7855
aVlt
p7856
aVlte
p7857
aVrange
p7858
assg70
g7808
sVallowed_detail_http_methods
p7859
(lp7860
Vget
p7861
asVordering
p7862
(lp7863
Vid
p7864
aVdate
p7865
aVresource_name
p7866
aVobject_id
p7867
aVobject_resource_uri
p7868
aVuser
p7869
aVmethod
p7870
asVfields
p7871
(dp7872
g7812
(dp7873
Vnullable
p7874
I00
sVdefault
p7875
VNo default provided.
p7876
sVreadonly
p7877
I00
sVblank
p7878
I00
sVhelp_text
p7879
VUnicode string data. Ex: "Hello World"
p7880
sVunique
p7881
I00
sVtype
p7882
Vstring
p7883
ssVuser_agent
p7884
(dp7885
g7874
I00
sg7875
V
sg7877
I00
sg7878
I00
sg7879
VUnicode string data. Ex: "Hello World"
p7886
sg7881
I00
sg7882
Vstring
p7887
ssg7816
(dp7888
g7874
I01
sg7875
VNo default provided.
p7889
sg7877
I00
sg7878
I00
sg7879
VUnicode string data. Ex: "Hello World"
p7890
sg7881
I00
sg7882
Vstring
p7891
ssg7821
(dp7892
g7874
I01
sg7875
Nsg7877
I00
sg7878
I00
sg7879
VInteger data. Ex: 2673
p7893
sg7881
I00
sg7882
Vinteger
p7894
ssg7826
(dp7895
g7874
I00
sg7875
VNo default provided.
p7896
sg7877
I00
sg7878
I00
sg7879
VUnicode string data. Ex: "Hello World"
p7897
sg7881
I00
sg7882
Vstring
p7898
ssVapplication
p7899
(dp7900
Vrelated_type
p7901
Vto_one
p7902
sg7874
I01
sg7875
VNo default provided.
p7903
sg7877
I00
sg7878
I00
sg7879
VA reference to [:r:application].  Maybe specified by URI or ID.  Using a URI is recommended.
p7904
sg7881
I00
sg7882
Vrelated
p7905
ssg7833
(dp7906
g7901
Vto_one
p7907
sg7874
I01
sg7875
VNo default provided.
p7908
sg7877
I00
sg7878
I00
sg7879
VA [:r:user].  Maybe specified by URI, email, or ID.  Using a URI is recommended.
p7909
sg7881
I00
sg7882
Vrelated
p7910
ssVcontent_type
p7911
(dp7912
g7901
Vto_one
p7913
sg7874
I01
sg7875
VNo default provided.
p7914
sg7877
I00
sg7878
I00
sg7879
VA reference to [:r:content_type].  Maybe specified by URI or ID.  Using a URI is recommended.
p7915
sg7881
I00
sg7882
Vrelated
p7916
ssg7842
(dp7917
g7874
I00
sg7875
I01
sg7877
I00
sg7878
I01
sg7879
VA date & time as a string. Ex: "2010-11-10T03:07:43"
p7918
sg7881
I00
sg7882
Vdatetime
p7919
ssVpath
p7920
(dp7921
g7874
I00
sg7875
VNo default provided.
p7922
sg7877
I00
sg7878
I00
sg7879
VUnicode string data. Ex: "Hello World"
p7923
sg7881
I00
sg7882
Vstring
p7924
ssg7850
(dp7925
g7874
I00
sg7875
VNo default provided.
p7926
sg7877
I01
sg7878
I00
sg7879
VThe primary key for this resource. Integer data. Ex: 2673
p7927
sg7881
I01
sg7882
Vinteger
p7928
ssVresource_uri
p7929
(dp7930
g7874
I00
sg7875
VNo default provided.
p7931
sg7877
I01
sg7878
I00
sg7879
VThe unique URI where the object resides.
p7932
sg7881
I00
sg7882
Vstring
p7933
sssg131
V/api/activitylog/
p7934
sVdefault_format
p7935
Vapplication/json
p7936
sVdefault_limit
p7937
I20
sVallowed_list_http_methods
p7938
(lp7939
Vget
p7940
assVtidalvolume
p7941
(dp7942
Vfiltering
p7943
(dp7944
Vflat
p7945
(lp7946
Vexact
p7947
asVend
p7948
(lp7949
Vexact
p7950
asVstart
p7951
(lp7952
Vexact
p7953
asVdatatype
p7954
(lp7955
Vexact
p7956
aVin
p7957
aVgt
p7958
aVgte
p7959
aVlt
p7960
aVlte
p7961
aVrange
p7962
asVtimestamp
p7963
(lp7964
Vrange
p7965
aVgt
p7966
aVgte
p7967
aVlt
p7968
aVlte
p7969
asVseconds
p7970
(lp7971
Vexact
p7972
asVno_timestamps
p7973
(lp7974
Vexact
p7975
asVrecord
p7976
(lp7977
Vexact
p7978
aVin
p7979
aVgt
p7980
aVgte
p7981
aVlt
p7982
aVlte
p7983
aVrange
p7984
asVrange
p7985
(lp7986
Vexact
p7987
aVin
p7988
aVgt
p7989
aVgte
p7990
aVlt
p7991
aVlte
p7992
aVrange
p7993
asVuser
p7994
(lp7995
Vexact
p7996
asVmax_values
p7997
(lp7998
Vexact
p7999
asVid
p8000
(lp8001
Vexact
p8002
aVin
p8003
aVgt
p8004
aVgte
p8005
aVlt
p8006
aVlte
p8007
aVrange
p8008
assg70
g7941
sVallowed_detail_http_methods
p8009
(lp8010
sVfields
p8011
(dp8012
g7945
(dp8013
Vnullable
p8014
I00
sVdefault
p8015
VNo default provided.
p8016
sVreadonly
p8017
I00
sVblank
p8018
I00
sVhelp_text
p8019
V__nodoc__
p8020
sVunique
p8021
I00
sVtype
p8022
Vinteger
p8023
ssg7948
(dp8024
g8014
I00
sg8015
VNo default provided.
p8025
sg8017
I00
sg8018
I00
sg8019
V__nodoc__
p8026
sg8021
I00
sg8022
Vinteger
p8027
ssg7951
(dp8028
g8014
I00
sg8015
VNo default provided.
p8029
sg8017
I00
sg8018
I00
sg8019
V__nodoc__
p8030
sg8021
I00
sg8022
Vinteger
p8031
ssg7954
(dp8032
Vrelated_type
p8033
Vto_one
p8034
sg8014
I00
sg8015
VNo default provided.
p8035
sg8017
I00
sg8018
I01
sg8019
V__nodoc__
p8036
sg8021
I00
sg8022
Vrelated
p8037
ssg7963
(dp8038
g8014
I00
sg8015
VNo default provided.
p8039
sg8017
I00
sg8018
I00
sg8019
V__nodoc__
p8040
sg8021
I00
sg8022
Vinteger
p8041
ssg7970
(dp8042
g8014
I00
sg8015
VNo default provided.
p8043
sg8017
I00
sg8018
I00
sg8019
V__nodoc__
p8044
sg8021
I00
sg8022
Vinteger
p8045
ssg7973
(dp8046
g8014
I00
sg8015
VNo default provided.
p8047
sg8017
I00
sg8018
I00
sg8019
V__nodoc__
p8048
sg8021
I00
sg8022
Vinteger
p8049
ssg7976
(dp8050
g8033
Vto_one
p8051
sg8014
I01
sg8015
VNo default provided.
p8052
sg8017
I00
sg8018
I01
sg8019
V__nodoc__
p8053
sg8021
I00
sg8022
Vrelated
p8054
ssg7985
(dp8055
g8033
Vto_one
p8056
sg8014
I00
sg8015
VNo default provided.
p8057
sg8017
I00
sg8018
I00
sg8019
V__nodoc__
p8058
sg8021
I00
sg8022
Vrelated
p8059
ssg7994
(dp8060
g8033
Vto_one
p8061
sg8014
I00
sg8015
VNo default provided.
p8062
sg8017
I00
sg8018
I00
sg8019
V__nodoc__
p8063
sg8021
I00
sg8022
Vrelated
p8064
ssg7997
(dp8065
g8014
I00
sg8015
VNo default provided.
p8066
sg8017
I00
sg8018
I00
sg8019
V__nodoc__
p8067
sg8021
I00
sg8022
Vinteger
p8068
sssg131
V/api/tidalvolume/
p8069
sVdefault_format
p8070
Vapplication/json
p8071
sVdefault_limit
p8072
I20
sVallowed_list_http_methods
p8073
(lp8074
Vget
p8075
assVshare
p8076
(dp8077
g70
g8076
sVallowed_detail_http_methods
p8078
(lp8079
Vget
p8080
asVfields
p8081
(dp8082
Vshared_uri
p8083
(dp8084
Vnullable
p8085
I00
sVdefault
p8086
VNo default provided.
p8087
sVreadonly
p8088
I01
sVblank
p8089
I00
sVhelp_text
p8090
VUnicode string data. Ex: "Hello World"
p8091
sVunique
p8092
I00
sVtype
p8093
Vstring
p8094
ssVcreated
p8095
(dp8096
g8085
I00
sg8086
I01
sg8088
I00
sg8089
I01
sg8090
VA date & time as a string. Ex: "2010-11-10T03:07:43"
p8097
sg8092
I00
sg8093
Vdatetime
p8098
ssVsharetype
p8099
(dp8100
Vrelated_type
p8101
Vto_one
p8102
sg8085
I00
sg8086
VNo default provided.
p8103
sg8088
I00
sg8089
I00
sg8090
VA reference to [:r:sharetype].  Maybe specified by URI or ID.  Using a URI is recommended.
p8104
sg8092
I00
sg8093
Vrelated
p8105
ssVobject_id
p8106
(dp8107
g8085
I00
sg8086
VNo default provided.
p8108
sg8088
I00
sg8089
I00
sg8090
VInteger data. Ex: 2673
p8109
sg8092
I00
sg8093
Vinteger
p8110
ssVtoken
p8111
(dp8112
g8085
I00
sg8086
V
sg8088
I00
sg8089
I01
sg8090
VUnicode string data. Ex: "Hello World"
p8113
sg8092
I01
sg8093
Vstring
p8114
ssVid
p8115
(dp8116
g8085
I00
sg8086
VNo default provided.
p8117
sg8088
I01
sg8089
I00
sg8090
VThe primary key for this resource. Integer data. Ex: 2673
p8118
sg8092
I00
sg8093
Vinteger
p8119
ssVresource_uri
p8120
(dp8121
g8085
I00
sg8086
VNo default provided.
p8122
sg8088
I01
sg8089
I00
sg8090
VThe unique URI where the object resides.
p8123
sg8092
I00
sg8093
Vstring
p8124
sssg131
V/api/share/
p8125
sVdefault_format
p8126
Vapplication/json
p8127
sVdefault_limit
p8128
I20
sVallowed_list_http_methods
p8129
(lp8130
Vget
p8131
aVpost
p8132
assVchangeemail
p8133
(dp8134
Vfiltering
p8135
(dp8136
Vusername
p8137
(lp8138
Vexact
p8139
aVin
p8140
aVstartswith
p8141
asVsearch
p8142
(lp8143
Vexact
p8144
asVemail
p8145
(lp8146
Vexact
p8147
aVin
p8148
aVstartswith
p8149
asVid
p8150
(lp8151
Vexact
p8152
aVin
p8153
aVgt
p8154
aVgte
p8155
aVlt
p8156
aVlte
p8157
aVrange
p8158
assg70
g8133
sVallowed_detail_http_methods
p8159
(lp8160
Vget
p8161
aVput
p8162
asVordering
p8163
(lp8164
Vid
p8165
aVusername
p8166
aVemail
p8167
asVfields
p8168
(dp8169
Vprofile
p8170
(dp8171
Vrelated_type
p8172
Vto_one
p8173
sVnullable
p8174
I01
sVdefault
p8175
VNo default provided.
p8176
sVreadonly
p8177
I01
sVblank
p8178
I01
sVhelp_text
p8179
VA reference to [:r:profile].  Maybe specified by URI or ID.  Using a URI is recommended.
p8180
sVunique
p8181
I00
sVtype
p8182
Vrelated
p8183
ssg8137
(dp8184
g8174
I00
sg8175
VNo default provided.
p8185
sg8177
I01
sg8178
I01
sg8179
VSet to be the same as email. Left in place for historical reasons.
p8186
sg8181
I01
sg8182
Vstring
p8187
ssVfirst_name
p8188
(dp8189
g8174
I00
sg8175
V
sg8177
I00
sg8178
I01
sg8179
VUnicode string data. Ex: "Hello World"
p8190
sg8181
I00
sg8182
Vstring
p8191
ssVlast_name
p8192
(dp8193
g8174
I00
sg8175
V
sg8177
I00
sg8178
I01
sg8179
VUnicode string data. Ex: "Hello World"
p8194
sg8181
I00
sg8182
Vstring
p8195
ssg8150
(dp8196
g8174
I00
sg8175
VNo default provided.
p8197
sg8177
I01
sg8178
I00
sg8179
VThe primary key for this resource. The primary key for this resource. Integer data. Ex: 2673
p8198
sg8181
I01
sg8182
Vinteger
p8199
ssg8145
(dp8200
g8174
I00
sg8175
VNo default provided.
p8201
sg8177
I01
sg8178
I01
sg8179
VCannot change without an email confirmation loop
p8202
sg8181
I01
sg8182
Vstring
p8203
ssVresource_uri
p8204
(dp8205
g8174
I00
sg8175
VNo default provided.
p8206
sg8177
I01
sg8178
I00
sg8179
VThe unique URI where the object resides.
p8207
sg8181
I00
sg8182
Vstring
p8208
sssg131
V/api/changeemail/
p8209
sVdefault_format
p8210
Vapplication/json
p8211
sVdefault_limit
p8212
I20
sVallowed_list_http_methods
p8213
(lp8214
Vpost
p8215
assVcreaterelateduser
p8216
(dp8217
g70
g8216
sVallowed_detail_http_methods
p8218
(lp8219
Vget
p8220
aVput
p8221
asVfields
p8222
(dp8223
Vprofile
p8224
(dp8225
Vrelated_type
p8226
Vto_one
p8227
sVnullable
p8228
I01
sVdefault
p8229
VNo default provided.
p8230
sVreadonly
p8231
I01
sVblank
p8232
I01
sVhelp_text
p8233
VA reference to [:r:profile].  Maybe specified by URI or ID.  Using a URI is recommended.
p8234
sVunique
p8235
I00
sVtype
p8236
Vrelated
p8237
ssVusername
p8238
(dp8239
g8228
I00
sg8229
VNo default provided.
p8240
sg8231
I01
sg8232
I01
sg8233
VSet to be the same as email. Left in place for historical reasons.
p8241
sg8235
I00
sg8236
Vstring
p8242
ssVfirst_name
p8243
(dp8244
g8228
I00
sg8229
V
sg8231
I00
sg8232
I01
sg8233
VUnicode string data. Ex: "Hello World"
p8245
sg8235
I00
sg8236
Vstring
p8246
ssVlast_name
p8247
(dp8248
g8228
I00
sg8229
V
sg8231
I00
sg8232
I01
sg8233
VUnicode string data. Ex: "Hello World"
p8249
sg8235
I00
sg8236
Vstring
p8250
ssVbundles
p8251
(dp8252
g8228
I00
sg8229
VNo default provided.
p8253
sg8231
I00
sg8232
I00
sg8233
VAn array of Bundle URIs
p8254
sg8235
I00
sg8236
Vlist
p8255
ssVid
p8256
(dp8257
g8228
I00
sg8229
VNo default provided.
p8258
sg8231
I01
sg8232
I00
sg8233
VThe primary key for this resource. The primary key for this resource. The primary key for this resource. Integer data. Ex: 2673
p8259
sg8235
I01
sg8236
Vinteger
p8260
ssVpassword
p8261
(dp8262
g8228
I01
sg8229
VNo default provided.
p8263
sg8231
I00
sg8232
I01
sg8233
VUnicode string data. Ex: "Hello World"
p8264
sg8235
I00
sg8236
Vstring
p8265
ssVemail
p8266
(dp8267
g8228
I00
sg8229
VNo default provided.
p8268
sg8231
I00
sg8232
I00
sg8233
VUnicode string data. Ex: "Hello World"
p8269
sg8235
I00
sg8236
Vstring
p8270
ssVresource_uri
p8271
(dp8272
g8228
I00
sg8229
VNo default provided.
p8273
sg8231
I01
sg8232
I00
sg8233
VThe unique URI where the object resides.
p8274
sg8235
I00
sg8236
Vstring
p8275
sssg131
V/api/createrelateduser/
p8276
sVdefault_format
p8277
Vapplication/json
p8278
sVdefault_limit
p8279
I20
sVallowed_list_http_methods
p8280
(lp8281
Vpost
p8282
assVspo2
p8283
(dp8284
Vfiltering
p8285
(dp8286
Vflat
p8287
(lp8288
Vexact
p8289
asVend
p8290
(lp8291
Vexact
p8292
asVstart
p8293
(lp8294
Vexact
p8295
asVdatatype
p8296
(lp8297
Vexact
p8298
aVin
p8299
aVgt
p8300
aVgte
p8301
aVlt
p8302
aVlte
p8303
aVrange
p8304
asVtimestamp
p8305
(lp8306
Vrange
p8307
aVgt
p8308
aVgte
p8309
aVlt
p8310
aVlte
p8311
asVseconds
p8312
(lp8313
Vexact
p8314
asVno_timestamps
p8315
(lp8316
Vexact
p8317
asVrecord
p8318
(lp8319
Vexact
p8320
aVin
p8321
aVgt
p8322
aVgte
p8323
aVlt
p8324
aVlte
p8325
aVrange
p8326
asVrange
p8327
(lp8328
Vexact
p8329
aVin
p8330
aVgt
p8331
aVgte
p8332
aVlt
p8333
aVlte
p8334
aVrange
p8335
asVuser
p8336
(lp8337
Vexact
p8338
asVmax_values
p8339
(lp8340
Vexact
p8341
asVid
p8342
(lp8343
Vexact
p8344
aVin
p8345
aVgt
p8346
aVgte
p8347
aVlt
p8348
aVlte
p8349
aVrange
p8350
assg70
g8283
sVallowed_detail_http_methods
p8351
(lp8352
sVfields
p8353
(dp8354
g8287
(dp8355
Vnullable
p8356
I00
sVdefault
p8357
VNo default provided.
p8358
sVreadonly
p8359
I00
sVblank
p8360
I00
sVhelp_text
p8361
V__nodoc__
p8362
sVunique
p8363
I00
sVtype
p8364
Vinteger
p8365
ssg8290
(dp8366
g8356
I00
sg8357
VNo default provided.
p8367
sg8359
I00
sg8360
I00
sg8361
V__nodoc__
p8368
sg8363
I00
sg8364
Vinteger
p8369
ssg8293
(dp8370
g8356
I00
sg8357
VNo default provided.
p8371
sg8359
I00
sg8360
I00
sg8361
V__nodoc__
p8372
sg8363
I00
sg8364
Vinteger
p8373
ssg8296
(dp8374
Vrelated_type
p8375
Vto_one
p8376
sg8356
I00
sg8357
VNo default provided.
p8377
sg8359
I00
sg8360
I01
sg8361
V__nodoc__
p8378
sg8363
I00
sg8364
Vrelated
p8379
ssg8305
(dp8380
g8356
I00
sg8357
VNo default provided.
p8381
sg8359
I00
sg8360
I00
sg8361
V__nodoc__
p8382
sg8363
I00
sg8364
Vinteger
p8383
ssg8312
(dp8384
g8356
I00
sg8357
VNo default provided.
p8385
sg8359
I00
sg8360
I00
sg8361
V__nodoc__
p8386
sg8363
I00
sg8364
Vinteger
p8387
ssg8315
(dp8388
g8356
I00
sg8357
VNo default provided.
p8389
sg8359
I00
sg8360
I00
sg8361
V__nodoc__
p8390
sg8363
I00
sg8364
Vinteger
p8391
ssg8318
(dp8392
g8375
Vto_one
p8393
sg8356
I01
sg8357
VNo default provided.
p8394
sg8359
I00
sg8360
I01
sg8361
V__nodoc__
p8395
sg8363
I00
sg8364
Vrelated
p8396
ssg8327
(dp8397
g8375
Vto_one
p8398
sg8356
I00
sg8357
VNo default provided.
p8399
sg8359
I00
sg8360
I00
sg8361
V__nodoc__
p8400
sg8363
I00
sg8364
Vrelated
p8401
ssg8336
(dp8402
g8375
Vto_one
p8403
sg8356
I00
sg8357
VNo default provided.
p8404
sg8359
I00
sg8360
I00
sg8361
V__nodoc__
p8405
sg8363
I00
sg8364
Vrelated
p8406
ssg8339
(dp8407
g8356
I00
sg8357
VNo default provided.
p8408
sg8359
I00
sg8360
I00
sg8361
V__nodoc__
p8409
sg8363
I00
sg8364
Vinteger
p8410
sssg131
V/api/spo2/
p8411
sVdefault_format
p8412
Vapplication/json
p8413
sVdefault_limit
p8414
I20
sVallowed_list_http_methods
p8415
(lp8416
Vget
p8417
assVtrackpoint
p8418
(dp8419
Vfiltering
p8420
(dp8421
Vend
p8422
(lp8423
Vexact
p8424
asVstart
p8425
(lp8426
Vexact
p8427
asVtrack
p8428
I2
sVtimestamp
p8429
(lp8430
Vrange
p8431
aVgt
p8432
aVgte
p8433
aVlt
p8434
aVlte
p8435
asVrecord
p8436
(lp8437
Vexact
p8438
aVin
p8439
aVgt
p8440
aVgte
p8441
aVlt
p8442
aVlte
p8443
aVrange
p8444
asVrange
p8445
(lp8446
Vexact
p8447
aVin
p8448
aVgt
p8449
aVgte
p8450
aVlt
p8451
aVlte
p8452
aVrange
p8453
asVuser
p8454
(lp8455
Vexact
p8456
asVtime
p8457
(lp8458
Vexact
p8459
aVrange
p8460
aVgt
p8461
aVgte
p8462
aVlt
p8463
aVlte
p8464
asVid
p8465
(lp8466
Vexact
p8467
aVin
p8468
aVgt
p8469
aVgte
p8470
aVlt
p8471
aVlte
p8472
aVrange
p8473
assg70
g8418
sVallowed_detail_http_methods
p8474
(lp8475
Vget
p8476
aVput
p8477
aVpatch
p8478
aVdelete
p8479
asVordering
p8480
(lp8481
Vid
p8482
aVtrack
p8483
aVtime
p8484
asVfields
p8485
(dp8486
Vvertical_accuracy
p8487
(dp8488
Vnullable
p8489
I01
sVdefault
p8490
NsVreadonly
p8491
I00
sVblank
p8492
I00
sVhelp_text
p8493
VFloating point numeric data. Ex: 26.73
p8494
sVunique
p8495
I00
sVtype
p8496
Vfloat
p8497
ssVhorizontal_accuracy
p8498
(dp8499
g8489
I01
sg8490
Nsg8491
I00
sg8492
I00
sg8493
VFloating point numeric data. Ex: 26.73
p8500
sg8495
I00
sg8496
Vfloat
p8501
ssg8428
(dp8502
Vrelated_type
p8503
Vto_one
p8504
sg8489
I00
sg8490
VNo default provided.
p8505
sg8491
I00
sg8492
I00
sg8493
VA reference to [:r:track].  Maybe specified by URI or ID.  Using a URI is recommended.
p8506
sg8495
I00
sg8496
Vrelated
p8507
ssg8429
(dp8508
g8489
I01
sg8490
VNo default provided.
p8509
sg8491
I00
sg8492
I00
sg8493
V__nodoc__
p8510
sg8495
I00
sg8496
Vdatetime
p8511
ssValtitude
p8512
(dp8513
g8489
I01
sg8490
Nsg8491
I00
sg8492
I00
sg8493
VFloating point numeric data. Ex: 26.73
p8514
sg8495
I00
sg8496
Vfloat
p8515
ssVcourse
p8516
(dp8517
g8489
I01
sg8490
Nsg8491
I00
sg8492
I00
sg8493
VFloating point numeric data. Ex: 26.73
p8518
sg8495
I00
sg8496
Vfloat
p8519
ssg8445
(dp8520
g8503
Vto_one
p8521
sg8489
I01
sg8490
VNo default provided.
p8522
sg8491
I00
sg8492
I01
sg8493
V__nodoc__
p8523
sg8495
I00
sg8496
Vrelated
p8524
ssg8454
(dp8525
g8503
Vto_one
p8526
sg8489
I01
sg8490
VNo default provided.
p8527
sg8491
I00
sg8492
I00
sg8493
V__nodoc__
p8528
sg8495
I00
sg8496
Vrelated
p8529
ssg8457
(dp8530
g8489
I01
sg8490
VNo default provided.
p8531
sg8491
I00
sg8492
I00
sg8493
V__nodoc__
p8532
sg8495
I00
sg8496
Vdatetime
p8533
ssVposition
p8534
(dp8535
g8489
I00
sg8490
VNo default provided.
p8536
sg8491
I00
sg8492
I00
sg8493
VGeometry data.
p8537
sg8495
I00
sg8496
Vgeometry
p8538
ssVresource_uri
p8539
(dp8540
g8489
I00
sg8490
VNo default provided.
p8541
sg8491
I01
sg8492
I00
sg8493
VThe unique URI where the object resides.
p8542
sg8495
I00
sg8496
Vstring
p8543
ssVspeed
p8544
(dp8545
g8489
I01
sg8490
Nsg8491
I00
sg8492
I00
sg8493
VFloating point numeric data. Ex: 26.73
p8546
sg8495
I00
sg8496
Vfloat
p8547
ssg8465
(dp8548
g8489
I00
sg8490
VNo default provided.
p8549
sg8491
I01
sg8492
I00
sg8493
VThe primary key for this resource. Integer data. Ex: 2673
p8550
sg8495
I01
sg8496
Vinteger
p8551
ssg8436
(dp8552
g8503
Vto_one
p8553
sg8489
I01
sg8490
VNo default provided.
p8554
sg8491
I00
sg8492
I01
sg8493
V__nodoc__
p8555
sg8495
I00
sg8496
Vrelated
p8556
sssg131
V/api/trackpoint/
p8557
sVdefault_format
p8558
Vapplication/json
p8559
sVdefault_limit
p8560
I20
sVallowed_list_http_methods
p8561
(lp8562
Vget
p8563
aVpost
p8564
aVpatch
p8565
ass.